(dp0
VFrankie Ballard
p1
V0dvKgSdNB2U1gfp6ZcekYi
p2
sVHerb Alpert
p3
V1PqdKx88nAgPolRy079lMl
p4
sVChico DeBarge
p5
V67ISVBZzcCTTKM17Ps00sx
p6
sVScars On 45
p7
V5ltIfb6fKhN2sxGic1WRWy
p8
sVHuman Nature
p9
V72BTmmAO3QfETWlFjwjfJ1
p10
sVToad The Wet Sprocket
p11
V4j7EVY3kuDwLPfD2jfC7LC
p12
sVCrosby, Stills & Nash
p13
V2pdvghEHZJtgSXZ7cvNLou
p14
sVLedisi
p15
V60ciIY5MouLc2Y9n34DJdA
p16
sVMad Season
p17
V0T7JQxpy1Li93vLNirbv0Z
p18
sVRoberto Tapia
p19
V1TZXFnFYNzRTDrNFoH8YC0
p20
sVKristinia DeBarge
p21
V5Z22vlK4DCgDrQgBEqfc8w
p22
sVNick Swardson
p23
V78LOZfmCBpTxTkuqxkLWB6
p24
sVNeil Young & Crazy Horse
p25
V1jVuLlkfKibBT0hXDnzQjp
p26
sVJim Croce
p27
V1R6Hx1tJ2VOUyodEpC12xM
p28
sVNirvana
p29
V6olE6TJLqED3rqDCT0FyPh
p30
sVRandy Travis
p31
V1pTuR132U5b4Rizal2Pr7m
p32
sVRobert Randolph & The Family Band
p33
V4xac3zhHlBm5QDxbZeqgeR
p34
sVMassive Attack
p35
V6FXMGgJwohJLUSr5nVlf9X
p36
sVSPM
p37
V6IwjQ1OJn7kpVgR923CjKb
p38
sVAl Jarreau
p39
V3YR92OLKlvkK5oKNekSqXe
p40
sVJamie Grace
p41
V2E5E5eAP6yDhZ7EHc0Evr7
p42
sVMaranatha! Praise Band
p43
V6CDJjCW8qVphiyxVukKdOa
p44
sVRussell Moore & IIIrd Tyme Out
p45
V435e39CJddwkCUEK86yIkg
p46
sVDaughtry
p47
V5P5FTygHyx2G57oszR3Wot
p48
sVRicardo Arjona
p49
V0h1zs4CTlU9D2QtgPxptUD
p50
sVJohn Fullbright
p51
V2CpofTykBhdsrOuy9WA3YA
p52
sVMarc Broussard
p53
V4cEwEednPwWCdYT7ZhROZe
p54
sVChickenfoot
p55
V416gMRzj1LnFJvSBF5PO2R
p56
sVBig Time Rush
p57
V0GWCNkPi54upO9WLlwjAHd
p58
sVRed Dragon Cartel
p59
V1oywBXuZm8zmSivAC2rV0J
p60
sVThe Chieftains
p61
V6AnrSlk5Gp1YMXgaI3mWCL
p62
sVChris Tomlin
p63
V6pRi6EIPXz4QJEOEsBaA0m
p64
sVGemini Syndrome
p65
V5plcM0NxqZcnAWQVECcjWN
p66
sVSublime
p67
V0EdvGhlC1FkGItLOWQzG4J
p68
sVSteve Cropper
p69
V1gLCO8HDtmhp1eWmGcPl8S
p70
sVGary Allan
p71
V37W8SKV5Vc8lcGtdyWCA5m
p72
sVPeter Wolf
p73
V003kZCrZhoxCckVJ2jCiJC
p74
sVBad City
p75
V6AF5MVitfLHRDqtbmlc1iF
p76
sVConor Oberst And The Mystic Valley Band
p77
V2BoOe7KEtWpXqnfs8yaj1V
p78
sVThe Crystal Method
p79
V5eKLa1xyHLq8ERWmT1CRHj
p80
sVJarvis Cocker
p81
V13W7XLRXdWeLmIu9vacE1w
p82
sVTite Curet Alonso
p83
V7MZI59tH82HcLONMz3r7tC
p84
sVBayside
p85
V51J0q8S7W3kIEYHQi3EPqk
p86
sVBusta Rhymes
p87
V1YfEcTuGvBQ8xSD1f53UnK
p88
sVJencarlos Canela
p89
V4OjZUF9WVfpAWaWBikwIS5
p90
sVJohn Mellencamp
p91
V3lPQ2Fk5JOwGWAF3ORFCqH
p92
sVMatthew West
p93
V6e8OTLDQpaz1Tl2GEaxsNj
p94
sVRed Hot Chili Peppers
p95
V0L8ExT028jH3ddEcZwqJJ5
p96
sVPat Metheny
p97
V3t58jfUhoMLYVO14XaUFLA
p98
sVSuzanne Vega
p99
V3X0tJzVYoWlfjLYI0Ridsw
p100
sVEl Gran Combo
p101
V2NOFc8HSGdL19jZDOywvhW
p102
sVMichael McDonald
p103
V24hJWbo98sH84tb0nkeaqy
p104
sVSandi Patty
p105
V6RJYPm4gcrIuOjQiqu9VXu
p106
sVUnspoken
p107
V0CqDqmyIQ9VQHQp52OEbB0
p108
sVLord Huron
p109
V6ltzsmQQbmdoHHbLZ4ZN25
p110
sVGideon
p111
V3Zj2B8yAi8gHoR8vpsPatZ
p112
sVCraig Campbell
p113
V7tkwiWhGKSuQV8LwPWceWN
p114
sVBetween The Trees
p115
V4M6SYbj2q4kUUrz9zKVqKZ
p116
sVJJ DOOM
p117
V5BxMS9rhKHbSagaYFBICun
p118
sVMercyMe
p119
V6APm8EjxOHSYM5B4i3vT3q
p120
sVShwayze
p121
V6f0hUHWLOCxCSDQMtdVAS7
p122
sVEl Trono de Mexico
p123
V5L6QAKAkdJIPLsNbItZ2KF
p124
sVPassion Band
p125
V2WuHofJX8ADqFPiqH00vEy
p126
sVdeadmau5
p127
V2CIMQHirSU0MQqyYHq0eOx
p128
sVWe Are The In Crowd
p129
V1BSXtdFlVDUOS6g1T3tmME
p130
sVThe Joy Formidable
p131
V4LdZNE5MHGqvc0N9ivXNF3
p132
sV36 Crazyfists
p133
V4ijGLY4dzlurDh7jqH3tW7
p134
sVGame
p135
V2RCKYP9ONF6gsOh8F3dXPt
p136
sVReal Friends
p137
V6dEtLwgmSI0hmfwTSjy8cw
p138
sVDevil You Know
p139
V6RIRplpyp79REfeBrvW8rH
p140
sVFinger Eleven
p141
V0niJkG4tKkne3zwr7I8n9n
p142
sVAirbourne
p143
V6urzdpGY5yUimWZsgJUoTb
p144
sVMavis Staples
p145
V0cTSCsVx04SSht9V6cpKN0
p146
sVIsaac Carree
p147
V2bTfKyEM0bSDqmDcZybqzH
p148
sVAriel Pink
p149
V6aHztHryq1gSuO19l8h4Wd
p150
sVNada Surf
p151
V11zHPjHnZN0ACA50rSnTcy
p152
sVCalifornia Breed
p153
V7GwxVVJFS0SwwzQmhfoTtl
p154
sVDavid Bisbal
p155
V5gOJTI4TusSENizxhcG7jB
p156
sVMary Mary
p157
V12Kgt2eahvxNWhD5PnSUde
p158
sVBon Iver
p159
V4LEiUm1SRbFMgfqnQTwUbQ
p160
sVGoodie Mob
p161
V3F2Y683ovlWT53WKCeq0oj
p162
sVDisturbed
p163
V3TOqt5oJwL9BE2NG9MEwDa
p164
sVTrombone Shorty
p165
V37ZvFp654tY74Z1D2TLOGR
p166
sVThe Decemberists
p167
V7ITd48RbLVpUfheE7B86o2
p168
sVFifth Harmony
p169
V1l8Fu6IkuTP0U5QetQJ5Xt
p170
sVJose James
p171
V1ouul4ETAgWC8WJQs4iJSx
p172
sVSlightly Stoopid
p173
V6MxlVTY6PmY8Nyn16fvxtb
p174
sVLupe Fiasco
p175
V01QTIT5P1pFP3QnnFSdsJf
p176
sVAshley Tisdale
p177
V2ddxtfC0oS8LoktXUHE7YL
p178
sVDuke Ellington
p179
V4F7Q5NV6h5TSwCainz8S5A
p180
sVSuperchunk
p181
V7lmde7T1WJPFwv1eR6melP
p182
sVNat King Cole
p183
V7v4imS0moSyGdXyLgVTIV7
p184
sVQueen
p185
V1dfeR4HaWDbWqFHLkxsg1d
p186
sVB.B. King
p187
V5xLSa7l4IV1gsQfhAMvl0U
p188
sVBryson Tiller
p189
V2EMAnMvWE2eb56ToJVfCWs
p190
sVCecilia Bartoli
p191
V3uw6GzeL10NfFrcikMo9Na
p192
sVThe Band Perry
p193
V75FnCoo4FBxH5K1Rrx0k5A
p194
sVSurfer Blood
p195
V0IlQRCafsMrd0QkTRBU6n0
p196
sVCiara
p197
V2NdeV5rLm47xAvogXrYhJX
p198
sVMurs
p199
V2dWF6m2ksP9GN75fufFp16
p200
sVLynda Randle
p201
V5WWuo8k0komiDBmtec6gHI
p202
sVThe Killjoy Club
p203
V17iwMqzKuKxbfLO4VLLc8Z
p204
sVGlen Campbell
p205
V59hLmB5DrdihCYtNeFeW1U
p206
sVRaphael Saadiq
p207
V6g0Wah2YFtb1rFgKhUktlo
p208
sVThe Alchemist
p209
V0eVyjRhzZKke2KFYTcDkeu
p210
sVGerry Rafferty
p211
V7tjbDPvrdvDshcpEMXKRVb
p212
sVAlison Krauss & Union Station
p213
V0OTnx2X2FDXeewcm72lavT
p214
sVAvenged Sevenfold
p215
V0nmQIMXWTXfhgOBdNzhGOs
p216
sVSay Anything
p217
V3ImqpXKKgkH5VydfgX1hd4
p218
sVLake Street Dive
p219
V3nuc29fYGlQbIrwh4yrNWd
p220
sVWhitney Houston
p221
V6XpaIBNiVzIetEPCWDvAFP
p222
sVWill Hoge
p223
V6a8DSomMqspxk3s3WlBjNT
p224
sVBob Seger & The Silver Bullet Band
p225
V2wN2QQ2YECgtsigIUi0eE1
p226
sVSebastian Bach
p227
V2D2svlzUpyTfcEEq0t3dgV
p228
sVThe New Broadway Cast Recording
p229
V5kqMFuk7UyGX8Fz0bfnOua
p230
sVPaul Potts
p231
V68klHWrqL5uWq2Qjqaz46j
p232
sVRicky Martin
p233
V7slfeZO9LsJbWgpkIoXBUJ
p234
sVJessie J
p235
V2gsggkzM5R49q6jpPvazou
p236
sVThe Booth Brothers
p237
V01uI1SCsA0pLwWa2ENV6Gv
p238
sVBlind Guardian
p239
V7jxJ25p0pPjk0MStloN6o6
p240
sVWintersun
p241
V6ui6SwChan7c1KYBQCqGKV
p242
sVJuan Gabriel
p243
V2MRBDr0crHWE5JwPceFncq
p244
sVAdventure Club
p245
V5CdJjUi9f0cVgo9nFuJrFa
p246
sVJamie Lynn Spears
p247
V3Er4s8F6Ugd0PESHxmYt0I
p248
sVMinistry
p249
V1DXylZlWbVvlckNqwvjTEt
p250
sVCraig Morgan
p251
V6ktyNEnEukKzskQEiXgCFD
p252
sVDarlene Zschech
p253
V6ZLy8YFk7VbamsI5qbYXtw
p254
sVHeartless Bastards
p255
V2wwMTLM2da1sa2JcJslf8W
p256
sVEnrique Iglesias
p257
V7qG3b048QCHVRO5Pv1T5lw
p258
sVStephen Kellogg And The Sixers
p259
V2kfXeO854BtcQr4Rjdxopq
p260
sVLuis Fonsi
p261
V4V8Sr092TqfHkfAA5fXXqG
p262
sVHands Like Houses
p263
V0u3d5PM2FuEuG5QuUdt8mT
p264
sVPaloma Faith
p265
V4fwuXg6XQHfdlOdmw36OHa
p266
sVJosh Kelley
p267
V1yLlQimDTRrACa45u50LXW
p268
sVDanzig
p269
V34c4iQ5tkaZKu6Sv28BTde
p270
sVThe Brooklyn Tabernacle Choir
p271
V4eDpQV93UILljVxohKoLUs
p272
sVLouis C.K.
p273
V4fQii15cX3Q0ZkjCdsIxkZ
p274
sVLudacris
p275
V3ipn9JLAPI5GUEo4y4jcoi
p276
sVTina Campbell
p277
V3dipd1qrih3c6oRdUzyfpP
p278
sVBush
p279
V78SHxLdtysAXgywQ4vE0Oa
p280
sVQueen Latifah
p281
V5m7wCUhYhBh7A3A3YMxrbt
p282
sVMandy Moore
p283
V2LJxr7Pt3JnP60eLxwbDOu
p284
sVThomas Bergersen
p285
V6BF0bXbsdujMSMeFZBGcBq
p286
sVQuincy Jones
p287
V3rxIQc9kWT6Ueg4BhnOwRK
p288
sVTravis Barker & YelaWolf
p289
V1JkvntU46Xoz1mnClbwyYu
p290
sVSteven Wilson
p291
V4X42BfuhWCAZ2swiVze9O0
p292
sVDavid Foster
p293
V77fIynHyQzTrTwibOo9Sjt
p294
sVJake Bugg
p295
V4hf3caW9H8uFwwbv5pFjcg
p296
sVMitchel Musso
p297
V3IcF2f5vEkY6HPQfLlQDlw
p298
sVJason Michael Carroll
p299
V6vgqbvuLEUcrg7SB1kRTYE
p300
sVPatsy Cline
p301
V7dNsHhGeGU5MV01r06O8gK
p302
sVTheory Of A Deadman
p303
V74eX4C98E4FCrAMl39qRsJ
p304
sVEagles
p305
V0ECwFtbIWEVNwjlrfc6xoL
p306
sVCannibal Corpse
p307
V0yLwGBQiBqhXOvmTfH2A7n
p308
sVLuke Bryan
p309
V0BvkDsjIUla7X0k6CSWh1I
p310
sVArtie Lange
p311
V3s5KtckSMZSS7wsELtMDme
p312
sVIl Divo
p313
V3KNZ9AOjBajjmr6ZR2VGfl
p314
sVAmy Winehouse
p315
V6Q192DXotxtaysaqNPy5yR
p316
sVLittle Mix
p317
V3e7awlrlDSwF3iM0WBjGMp
p318
sVGoldfrapp
p319
V5BKsn7SCN2XmbF7apdCpRS
p320
sVPhoenix
p321
V1xU878Z1QtBldR7ru9owdU
p322
sVStarset
p323
V0kD8IT1CzF7js2XKM9lLLa
p324
sVDave Koz
p325
V0ZcJXldoq09BRIMl0Qh1Vm
p326
sVJohn Waller
p327
V2Px7jTtwBH0nHI1fYSYuaL
p328
sVXzibit
p329
V4tujQJicOnuZRLiBFdp3Ou
p330
sVCold 187um
p331
V5zzbUtGK3M7oAGRDD0vTY6
p332
sVLP
p333
V0J7U24vlOOIeMpuaO6Q85A
p334
sVEtta James
p335
V0iOVhN3tnSvgDbcg25JoJb
p336
sVPeter Murphy
p337
V7zeHJIIfNStVfxlbT72UwY
p338
sVLevon Helm
p339
V1PWHsS9haruM3AEebZuGs9
p340
sVMemphis May Fire
p341
V7cNNNhdJDrt3vgQjwSavNf
p342
sVNelly Furtado
p343
V2jw70GZXlAI8QzWeY2bgRc
p344
sVJoyce Manor
p345
V7qbvNcfTfckhCNM8NiR8nN
p346
sVJohnny Mathis
p347
V21LGsW7bziR4Ledx7WZ1Wf
p348
sVKalin And Myles
p349
V2BL5VxhQadpc4v2VlZyKY5
p350
sVBlood On The Dance Floor
p351
V3llfMTWzOCWDpZeBSL4gbc
p352
sVGym Class Heroes
p353
V4IJczjB0fJ04gs4uvP0Fli
p354
sVBowling For Soup
p355
V5ND0mGcL9SKSjWIjPd0xIb
p356
sVCarole King
p357
V319yZVtYM9MBGqmSQnMyY6
p358
sVLittle Brother
p359
V0s9MrSopEoAn8JqwBipgdO
p360
sVRise Against
p361
V6Wr3hh341P84m3EI8qdn9O
p362
sVCibo Matto
p363
V2te8VJxgUxcElC8Uq6eJs6
p364
sVStarlito
p365
V4SjND9kT6Ja5TSPZTyUUab
p366
sVKamelot
p367
V7gTbq5nTZGQIUgjEGXQpOS
p368
sVDusty Springfield
p369
V5zaXYwewAXedKNCff45U5l
p370
sVJames Brown
p371
V7GaxyUddsPok8BuhxN6OUW
p372
sVThe Helio Sequence
p373
V6JoxwT8CwvpxxNaP55R6q2
p374
sVThe Lumineers
p375
V16oZKvXb6WkQlVAjwo2Wbg
p376
sVMaxwell
p377
V2AOt5htsbtyaHd5Eq3kl3j
p378
sVTyler Farr
p379
V3vHV92ecrylnUHDM4d2MtC
p380
sVRodrigo Y Gabriela
p381
V7vX3cMVyW8gtDA4y855ynF
p382
sVThe Antlers
p383
V5o8Wylae9k23IEJMIiwd8s
p384
sVNick 13
p385
V39tAB8gHpYHUv5OrEPU5qO
p386
sVThe Wild Feathers
p387
V5YENCIQVzziCFdoVWc26Bn
p388
sVSwoope
p389
V78ZdtwvDD5zTElro6EGkcU
p390
sVThe Used
p391
V55VydwMyCuGcavwPuhutPL
p392
sVLloyd
p393
V1Xfmvd48oOhEWkscWyEbh9
p394
sVThe Orwells
p395
V7ia4FaCVsbXvhVwagCJk7l
p396
sVRichie Sambora
p397
V6uNjT2PKDfR7t48JKhajkh
p398
sVNeil Finn
p399
V183DuT2WcaEO2tclTJW1tU
p400
sVWild Flag
p401
V4G3PykZuN4ts87LgYKI9Zu
p402
sVThe Swell Season
p403
V2buJppisWV2GWWBWgkK074
p404
sVDivine Fits
p405
V4uuUGaQKEYJW2b78K0HD6X
p406
sVMayer Hawthorne
p407
V4d53BMrRlQkrQMz5d59f2O
p408
sVPRo
p409
V0DfKHgbQn1b5W9KoHKCv37
p410
sVAloe Blacc
p411
V0id62QV2SZZfvBn9xpmuCl
p412
sVBlur
p413
V7MhMgCo0Bl0Kukl93PZbYS
p414
sVBrett Eldredge
p415
V0qSX3s5pJnAlSsgsCne8Cz
p416
sVVicci Martinez
p417
V1sxu3pxg9icRUHpyWpDxz2
p418
sVNight Ranger
p419
V1Ha0Fz4i0d4gu5fZbhBCtH
p420
sVMariachi El Bronx
p421
V0SidyBOAgQzRSreRRnsqUb
p422
sVSade
p423
V47zz7sob9NUcODy0BTDvKx
p424
sVTed Nugent
p425
V21ysNsPzHdqYN2fQ75ZswG
p426
sVJon McLaughlin
p427
V6z29S0IoiBJpSMP8plyCj7
p428
sVAs Blood Runs Black
p429
V4LjQpQc5NB5G02zqfEIex7
p430
sVEvery Avenue
p431
V1IpSmgcN9F3KNa7j9JtAE4
p432
sVBeck
p433
V3vbKDsSS70ZX9D2OcvbZmS
p434
sVPatton Oswalt
p435
V6YvKo1VtZxCoT8IkbAYswy
p436
sVWarr Acres
p437
V1OYqNQPzPOY7kJKQrryonf
p438
sVSully Erna
p439
V5L1SdeG9JS8cmL742IYBIy
p440
sVAnthony Green
p441
V0hxmHf6CqXsOLWgGXjmr7I
p442
sVTitus Andronicus
p443
V5lJ4XQ2hlPlxACN7q3xKL1
p444
sVJason Nevins
p445
V5w0ka9nPOmEH6CcZrutyP2
p446
sVBarbra Streisand
p447
V7jmTilWYlKOuavFfmQAcu6
p448
sVChris Brown
p449
V7bXgB6jMjp9ATFy66eO08Z
p450
sVTina Turner
p451
V1zuJe6b1roixEKMOtyrEak
p452
sVAugust Burns Red
p453
V5p9CTsn5ueGU4oScNX1axu
p454
sVMoonshine Bandits
p455
V7DBsiQxsZAKC5lHoRCdOFG
p456
sVRammstein
p457
V6wWVKhxIU2cEi0K81v7HvP
p458
sVAvril Lavigne
p459
V0p4nmQO2msCgU4IF37Wi3j
p460
sVThe Starlite Orchestra And Singers
p461
V0jUWuT9BxzypWyq1Axhi7G
p462
sVLos Tucanes de Tijuana
p463
V014WIDx7H4BRCHB1faiisK
p464
sVLes Claypool
p465
V1oM1vgebNTCZmVYwC3YYl8
p466
sVJJ Grey & MOFRO
p467
V1Jl8u1U1GtBlwocZK5LWZv
p468
sVIndia
p469
V7mGxCINUVtKdYJGqlT9hSt
p470
sVSting
p471
V0Ty63ceoRnnJKVEYP0VQpk
p472
sVPuscifer
p473
V2pAajGWerK3ghwToNWFENS
p474
sVGod Help The Girl
p475
V4zTWoo52TNONUpCUJPi99f
p476
sVAnti-Flag
p477
V30sqtiTKIb1oDve0SdYayT
p478
sVGeorge Duke
p479
V3EB0uKE2lGw6BB1UFJrONl
p480
sVMat Kearney
p481
V2NQEwAVHBNcI0tGMLlWwF1
p482
sVThe Neighbourhood
p483
V77SW9BnxLY8rJ0RciFqkHh
p484
sVHugh Laurie
p485
V5WM5zPOswRcPu07rxP2dQv
p486
sVGeorge Ezra
p487
V2ysnwxxNtSgbb9t1m2Ur4j
p488
sVAnoushka Shankar
p489
V6MTByljF8u5omBltY2VKPU
p490
sVNightwish
p491
V2NPduAUeLVsfIauhRwuft1
p492
sVOmarion
p493
V0f5nVCcR06GX8Qikz0COtT
p494
sVRoyal Blood
p495
V2S5hlvw4CMtMGswFtfdK15
p496
sVPearl Jam
p497
V1w5Kfo2jwwIPruYS2UWh56
p498
sVSheek Louch
p499
V14ejEUaU0wE2iAenbbv9b8
p500
sVThe 1975
p501
V3mIj9lX2MWuHmhNCA7LSCW
p502
sVAndrew McMahon In The Wilderness
p503
V716ZwtZBmwROBXcFmCzfdM
p504
sVJessica Reedy
p505
V53AfsMeg6Tr5kAejn7pON6
p506
sVSkeletonwitch
p507
V213mmq3zkNWx7CtfzftTC5
p508
sVModest Mouse
p509
V1yAwtBaoHLEDWAnWR87hBT
p510
sVDavid Cross
p511
V2URUumnB8mguimUYWej7Vh
p512
sVBetween The Buried And Me
p513
V2JC4hZm1egeJDEolLsMwZ9
p514
sVThe JaneDear Girls
p515
V1OEqn1sz93LEk4xqzq4tBe
p516
sVDavid Crowder Band
p517
V7DhP3bGT7dzr1dCkkH5mTS
p518
sVBrandon & Leah
p519
V7tpoUeXq6RlClRlq2ithVu
p520
sVHurt
p521
V3jnoH2xrhvxUgeN2rrudHL
p522
sVBABYMETAL
p523
V630wzNP2OL7fl4Xl0GnMWq
p524
sVBasement
p525
V4DUQBYAyOTZotSEdKhaf6c
p526
sVBlackberry Smoke
p527
V5P1oS9DUTPEqcrmXDmX4p8
p528
sVHole
p529
V5SHQUMAmEK5KmuSb0aDvsn
p530
sVHozier
p531
V2FXC3k01G6Gw61bmprjgqS
p532
sVOh Wonder
p533
V5cIc3SBFuBLVxJz58W2tU9
p534
sVCraig Wayne Boyd
p535
V4zt5aHAmGXYBO8FaWAbDGt
p536
sVOld Crow Medicine Show
p537
V4DBi4EYXgiqbkxvWUXUzMi
p538
sVSaliva
p539
V5S6hjAxgxjsLylsTtMIimO
p540
sVGreg Laswell
p541
V2Mf99N2VcDEcVuocyBLhyC
p542
sVSwedish House Mafia
p543
V1h6Cn3P4NGzXbaXidqURXs
p544
sVTrampled By Turtles
p545
V3GjVVVcFmUgEJEAAsbGkf4
p546
sVK-Ci & JoJo
p547
V05RZIdfz59ZW2FvFuwnmNK
p548
sVSarah Brightman
p549
V7Ead768rc4ShGxnqtqccU5
p550
sVHonor Society
p551
V6wYJgFEDVZmiCywTxOmoEe
p552
sVPaul Anka
p553
V7ceUfdWq2t5nbatS6ollHh
p554
sVTV On The Radio
p555
V3HJIB8sYPyxrFGuwvKXSLR
p556
sVJim Brickman
p557
V2NzWRNaaLByHyI3wpuec8P
p558
sVGeorge Strait
p559
V5vngPClqofybhPERIqQMYd
p560
sVJazmine Sullivan
p561
V7gSjFKpVmDgC2MMsnN8CYq
p562
sVKXM
p563
V2JRFJKmLEPXF9O2CAa3oDW
p564
sVShawn Colvin
p565
V0K7VN4aHxHcEb7PqkfoIVA
p566
sVAlex & Sierra
p567
V58MLl9nC29IXbE4nEtuoP2
p568
sVMetric
p569
V1rCIEwPp5OnXW0ornlSsRl
p570
sVSam Adams
p571
V6Zj5rHclWESrTQhNr0NQ4X
p572
sVFrench Montana
p573
V6vXTefBL93Dj5IqAWq6OTv
p574
sVBilly Childs
p575
V2DalOaFXdbHCB4cyMJhQtR
p576
sVObituary
p577
V0SbGI4sb8dAKFZnK7RFyhz
p578
sVAlbert King With Stevie Ray Vaughan
p579
V0VqJzfntEbQjjuCWyDfpZa
p580
sVAaron Lewis
p581
V2xmSfP65WLEwRyrQlpODuR
p582
sVRoyal Bliss
p583
V2DntubHirEICSdXa23WNpV
p584
sVJason Nelson
p585
V2UhHLKzq979iTCkLFurmef
p586
sVMurder By Death
p587
V3yrQJxTTj7xS2deLcXiEM3
p588
sVHot Chelle Rae
p589
V6jTnHxhb6cDCaCu4rdvsQ0
p590
sVJack's Mannequin
p591
V42aeGx2I3uXINpGqC8L0LD
p592
sVDizzy Wright
p593
V1LrWZc2qPhRCHyr6XtpBxq
p594
sVTenth Avenue North
p595
V7v35CkHBaT1SStgQHl95a0
p596
sVThe Acacia Strain
p597
V4tDkeVxH0CSkNiLVrsYmQs
p598
sVPatterson Hood
p599
V5JnjssuFBg104paXN0mKKn
p600
sVNeal E. Boyd
p601
V0OUvZzCCAqC8SovTJ8wYWp
p602
sVJencarlos
p603
V7nb1TiqL4KdE6u3CDEAl15
p604
sVThe Red Chord
p605
V3u0I9EqSd1Uo34MItEAIKc
p606
sVDevotchka
p607
V0hk8VgR64voU5ueK96W2DI
p608
sVDie Antwoord
p609
V6urkHDoIVO1WO8vNIwcJmM
p610
sVEmmy Rossum
p611
V6JcDqt1rBKIWfnoPjXFYqc
p612
sVMisterWives
p613
V5ivCbtrcD5N4rD337xIb2z
p614
sVStone Temple Pilots
p615
V2UazAtjfzqBF0Nho2awK4z
p616
sVKatharine McPhee
p617
V5oWOx0BBDSMoFB8JDrjQre
p618
sVThe Killers
p619
V0C0XlULifJtAgn6ZNCW2eu
p620
sVMartin Garrix
p621
V60d24wfXkVzDSfLS6hyCjZ
p622
sVBonnie "Prince" Billy
p623
V2zAvisjImPICTNsRgagqlV
p624
sVSt. Paul & The Broken Bones
p625
V4fXkvh05wFhuH77MfD4m9o
p626
sVTremonti
p627
V44tQC1PjxXIpEgW0i8uN00
p628
sVHanson
p629
V0SdiiPkr02EUdekHZJkt58
p630
sVBonobo
p631
V0cmWgDlu9CwTgxPhf403hb
p632
sVSelena
p633
V6IE6z7DcZIT4Ml3Fh5Ivch
p634
sVTori Amos
p635
V1KsASRNugxU85T0u6zSg32
p636
sVAlexander
p637
V04XfL2RkXRmQa2KEyAM0RF
p638
sVJessie James Decker
p639
V0GzIauSfKRc5BlNXpTWAGz
p640
sVDave Hause
p641
V6b58ZzXRHPakxMhPx7xHAx
p642
sVDavid Bowie
p643
V0oSGxfWSnnOXhD2fKuz2Gy
p644
sVBlitzen Trapper
p645
V72XY3HrDdFfZXNZFCT9Zh1
p646
sVMerle Haggard
p647
V2ptmyXoL7poH6Zq62h1QT9
p648
sVElla Henderson
p649
V7nDsS0l5ZAzMedVRKPP8F1
p650
sVEchosmith
p651
V1PbBg2aYjWLKRk84zJK15x
p652
sVIamSu!
p653
V2ZavqCJe7uqkRpISes0NFi
p654
sVThe Menzingers
p655
V7HWFXU9pHBj0u58yoRwwOJ
p656
sVDraco Rosa
p657
V4Vo7jk7sjpIFMk14dedex5
p658
sVZac Brown Band
p659
V6yJCxee7QumYr820xdIsjo
p660
sVCharles Jenkins & Fellowship Chicago
p661
V2jqLJvBYhbA8qNe37kbSaU
p662
sVRoger Creager
p663
V1DyywGnuzXGEzlZMXBcc0j
p664
sVConjunto Primavera
p665
V3nFB4eMP5gdqee2eQb8nZb
p666
sVDonny Osmond
p667
V5ZEAzHE2TzAwUcOj6jMIgf
p668
sVThe Weepies
p669
V6pwHWKweuoCyx3OoFaD0Q5
p670
sVDeuce
p671
V2iLpvtffIrQ4bMYrFPRN4x
p672
sVBanda Los Recoditos
p673
V4bPiOPI4V99cepEftvBYak
p674
sVDave Hollister
p675
V5Z1reBuaReg2pg72I2mnMm
p676
sVKasabian
p677
V11wRdbnoYqRddKBrpHt4Ue
p678
sVFive Iron Frenzy
p679
V1BcAEs4W94BrXMmVCOgwSx
p680
sVVNV Nation
p681
V4KlYg0F5KG9QNDFKaeTNAy
p682
sVBlack Stone Cherry
p683
V6WMo39FU3nrpSz3qMgRKug
p684
sVUsher
p685
V23zg3TcAtWQy7J6upgbUnj
p686
sVDeas Vail
p687
V6Ot9O7VY8GvclUApiA3ili
p688
sVMadonna
p689
V6tbjWDEIzxoDsBA1FuhfPW
p690
sVBee Gees
p691
V1LZEQNv7sE11VDY3SdxQeN
p692
sVCHVRCHES
p693
V3CjlHNtplJyTf9npxaPl5w
p694
sVA.C. Newman
p695
V0QldGXwclr0chJkP91RRWX
p696
sVSaves The Day
p697
V5gWhlJBlLQGLOgYWO8lwCU
p698
sVCoheed And Cambria
p699
V3utxjLheHaVEd9bPjQRsy8
p700
sVChicago
p701
V3iDD7bnsjL9J4fO298r0L0
p702
sVIsrael & New Breed
p703
V77HU1Zb1VDIFvWKteJii0E
p704
sVThe Thermals
p705
V4qAJ54O4V0W8SQcSz0bl1C
p706
sVBallyhoo!
p707
V6py4uFIC7T6RdrZnH6hFYJ
p708
sVThe Fireman
p709
V5QNeV0eXW8W8SVXeALkOpB
p710
sVAnthony Evans
p711
V6qL5lCa1VbCzWiVgnj6QIV
p712
sVRixton
p713
V0kkxsdcaWmWU2yWAqclDh4
p714
sVPaul Weller
p715
V7Lf3LOZp3U3u2f6cWMd3AH
p716
sVNichole Nordeman
p717
V0KSjxPoT71Dq8qcgfWTdHh
p718
sVZomboy
p719
V0ycHhPwPvoaO4VGzmMnXGq
p720
sVeels
p721
V3zunDAtRDg7kflREzWAhxl
p722
sVNiykee Heaton
p723
V63bCkf4n15jiKjHhLV7kSZ
p724
sVThe Head And The Heart
p725
V0n94vC3S9c3mb2HyNAOcjg
p726
sVCirca Survive
p727
V11FY888Qctoy6YueCpFkXT
p728
sVThousand Foot Krutch
p729
V6GfiCQDFYANz5wUkSmb3Dr
p730
sVJames Otto
p731
V3VStI6m5Ig9FAyUaa0lYAP
p732
sVAdrenaline Mob
p733
V1OiOWEQ9miUl9QbCX5JNza
p734
sVFive Finger Death Punch
p735
V5t28BP42x2axFnqOOMg3CM
p736
sVGinuwine
p737
V7r8RF1tN2A4CiGEplkp1oP
p738
sVCrossfade
p739
V4IR8ZkpbyyKrqsIzchF3NB
p740
sVPARTYNEXTDOOR
p741
V2HPaUgqeutzr3jx5a9WyDV
p742
sVLike Moths To Flames
p743
V6RRpZz1uPqY9E28kmSPAhw
p744
sVFriendly Fires
p745
V3mZqziCJj4pq3P2VBpmK6p
p746
sVThe Dead Rabbitts
p747
V7JVShmAauuaq861DoM5rP6
p748
sVAnimal Collective
p749
V4kwxTgCKMipBKhSnEstNKj
p750
sVUnknown Mortal Orchestra
p751
V1LeVJ5GPeYDOVUjxx1y7Rp
p752
sVMint Condition
p753
V4MT97VeycuegSicrrphisJ
p754
sVMaria Bamford
p755
V7bF1kZnhlO55twMXqZQIhX
p756
sVDanny Brown
p757
V7aA592KWirLsnfb5ulGWvU
p758
sVPatrulla 81
p759
V4TTxsp1mecTPT9O4dxVtvN
p760
sVThe Rapture
p761
V166Dz1GX3xonSQ3Z6CQW26
p762
sVPapoose
p763
V0mbgkaYR8KNUb5s3s1yYHG
p764
sVThe Allman Brothers Band
p765
V4wQ3PyMz3WwJGI5uEqHUVR
p766
sVLogic
p767
V4xRYI6VqpkE3UwrDrAZL8L
p768
sVAlabama
p769
V6rJqqRce0Kvo2dJUXoHleC
p770
sVDustin Kensrue
p771
V0SuWOa14KQ9jBIwvqFbzo5
p772
sVMax B
p773
V7f35VZGDpomj11PXdNn5D9
p774
sVWinds Of Plague
p775
V080xIP1qfuknBNYEYPuH1v
p776
sVSanctuary
p777
V1XolQApHVLzp4L8AeOZ7nx
p778
sVMelissa Etheridge
p779
V01Ppu7N8uYJI8SAONo2YZA
p780
sVBill & Gloria Gaither
p781
V11sAWrpIkFUPQlXoQqpeBV
p782
sVTristan Prettyman
p783
V49RRjdOtssOA73G9NnVeUM
p784
sVRobbie Robertson
p785
V5R6GD31ZP8YPGIlt73Madf
p786
sVTyrese
p787
V08p7B5OtcUuVblvkQIlBhJ
p788
sVStevie Stone
p789
V2IvPBSC4CgNLYC1GHEAxcN
p790
sVBrad Paisley
p791
V13YmWQJFwgZrd4bf5IjMY4
p792
sVNeck Deep
p793
V2TM0qnbJH4QPhGMCdPt7fH
p794
sVBrooke Fraser
p795
V1W2FTsCUlviVRhHNjZwWiN
p796
sVAsher Roth
p797
V1wgY8huggK60P5nvYrwcYT
p798
sVPop Evil
p799
V1pRaG81GsVtaTBuVSpldt2
p800
sVYanni
p801
V72qxDp6R6v22pai96pZioz
p802
sVAnjulie
p803
V4DTbdShHu2RPYEEMUp2XWV
p804
sVThe Mowgli's
p805
V6AGUQK1EWK6nvN4pLIDQDQ
p806
sVStick To Your Guns
p807
V2sqrupqcoipb7UzVKApEnJ
p808
sVJames Roberson
p809
V3TkTPMvpOMOig3kx0pWYTX
p810
sVA Fine Frenzy
p811
V5dTYaRzOn4rXGBLH052EeQ
p812
sVFlorida Georgia Line
p813
V3b8QkneNDz4JHKKKlLgYZg
p814
sVElizaveta
p815
V2a9bCkqCkLvXM0s3uPvR7M
p816
sVFlo Rida
p817
V0jnsk9HBra6NMjO2oANoPY
p818
sVHalford
p819
V0kq4QvLGV5t1ZoE6ittrLQ
p820
sVSet It Off
p821
V06bDwgCHeMAwhgI8il4Y5k
p822
sVDarlene Love
p823
V391oLRVmoTkumiN79HkTWu
p824
sVCKY
p825
V3ZQEU2arcWXSv3oz8hwWBK
p826
sVJesse McCartney
p827
V2Hjj68yyUPiC0HKEOigcEp
p828
sVGillian Welch
p829
V2H5elA2mJKrHmqkN9GSfkz
p830
sVYusuf
p831
V3xRvSWs691F5a9JpjvupJW
p832
sVNo Age
p833
V72acCeElLYGL9nBHcZzX1h
p834
sVJeffree Star
p835
V0ZVqyfTk5GaaRiQNQaW9jg
p836
sVFalling In Reverse
p837
V2CmaKO2zEGJ1NWpS1yfVGz
p838
sVReel Big Fish
p839
V3bXhZFreBJF4QDUUiMmtZW
p840
sVJohn Rich
p841
V51THHWH97iA2ISvNxUn6Gs
p842
sVScorpions
p843
V27T030eWyCQRmDyuvr1kxY
p844
sVLittle Big Town
p845
V3CygdxquGHurS7f9LjNLkv
p846
sVTodd Snider
p847
V6uXJm6sZx9IVPrN2laTOP5
p848
sVIdina Menzel
p849
V73Np75Wv2tju61Eo9Zw4IR
p850
sVChimaira
p851
V0kO2SRhHlmMIeyJHfHy3c9
p852
sVCanaan Smith
p853
V0q2lY1ZzFckzciuoMtUvck
p854
sVMS MR
p855
V4XaUmUGjidSklcDHxv3XWf
p856
sVTeddy Pendergrass
p857
V68kACMx6A3D2BYiO056MeQ
p858
sVTricky
p859
V6hhA8TKRNryM8FNzqCqdDO
p860
sVThe Word Alive
p861
V1CF8aEN939swnuIZGFI7Hk
p862
sVCrosses
p863
V2aV5brDGTHDSEgUZxsvuFJ
p864
sVTroy Ave
p865
V3cvKNz7BwIY404XtZ5tpUW
p866
sVLaura Marling
p867
V7B2edU3Q7btJoNsoHCNohM
p868
sVKenny Rogers
p869
V4tw2Lmn9tTPUv7Gy7mVPI4
p870
sVStreetlight Manifesto
p871
V1OKOTYGoCE2buxTYMegJp7
p872
sVThe Temper Trap
p873
V4W48hZAnAHVOC2c8WH8pcq
p874
sVPaper Route
p875
V2EoJ4ILZNAHjVtZgmWBaID
p876
sVThe Beach Boys
p877
V3oDbviiivRWhXwIE8hxkVV
p878
sVRobin Williams
p879
V4OrieSJUghNfNx5UuPCgxF
p880
sVG. Love
p881
V0t02iEuBVV6trNU2P7EWgi
p882
sVZZ Top
p883
V2AM4ilv6UzW0uMRuqKtDgN
p884
sVJay Reatard
p885
V3cAGUcRbwsFHwKbJv8FT4T
p886
sVCapture The Crown
p887
V30qVEvfIWHAUOm3sDswm7s
p888
sVFit For A King
p889
V0OgdRTPItr9dw4XYp4JJUx
p890
sVErnie Haase & Signature Sound
p891
V3Qp9Qtdb5G8QYHWfe5qxi0
p892
sVDia Frampton
p893
V3ppkM4QtM781APpaX7H9t7
p894
sVI See Stars
p895
V3iCJOi5YKh247eutgCyLFe
p896
sVDispatch
p897
V6v4jPZO3UIDNJIgdxRxtr9
p898
sVThe Chipmunks
p899
V2HXA7e3OTqhK6NkS9gA4zD
p900
sVThe Countdown Kids
p901
V6PZYFmF3PH6cOREAzfXiAL
p902
sVColbie Caillat
p903
V6aZyMrc4doVtZyKNilOmwu
p904
sVRed Wanting Blue
p905
V0ZAPCFYJyRqX63YsDhRAc8
p906
sVTeena Marie
p907
V61UT1Zj9dFgPAjZfwnsqsb
p908
sVAesop Rock
p909
V2fSaE6BXtQy0x7R7v9IOmZ
p910
sVKid Ink
p911
V6KZDXtSj0SzGOV705nNeh3
p912
sVJill Scott
p913
V6AVLthptCPhfrxlHadOBJD
p914
sVMark Olson & Gary Louris
p915
V61ztQTeODnVIRnsKsXPpnp
p916
sVDelta Spirit
p917
V1xVWSPiw5B0OduIC0DSu3V
p918
sVDJ Nesty
p919
V1QbKnLuatJMdjY8dFx7Nru
p920
sVSister Hazel
p921
V7m60UAnbgFFNuJbmS6OxTk
p922
sVN.A.S.A.
p923
V07WjVPM79OGQLOZ1jfUVk9
p924
sVSean Price
p925
V2x6jz70u3sZq75tW10akUW
p926
sVIbeyi
p927
V5Q8NEHGX70m1kkojbtm8wa
p928
sVDMX
p929
V1HwM5zlC5qNWhJtM00yXzG
p930
sVJoe Jackson
p931
V6KOqPxwfNAmZPkiCnDE9yT
p932
sVOrianthi
p933
V0yNy8fi1yBBq526E6mx4Zs
p934
sVW.A.S.P.
p935
V3BVkDHWRvLJEyKdvhLbjsq
p936
sVPHOX
p937
V3ix4iw2URncSdE7X292bXy
p938
sVDead By Sunrise
p939
V502ZZTWlqgS1Ht62ewubEJ
p940
sVAmanda Blank
p941
V6cMBAd7j8KLD9TnjfwQ91E
p942
sVThird Day
p943
V7uWXomGkKtIq9B4XgA3gch
p944
sVKari Jobe
p945
V5XlSS9O4eHRiJ0hKzbaFQ2
p946
sVBrandon Boyd
p947
V0QmjlE852mAIaEt2IpBquO
p948
sVCage
p949
V4yAE0Z6MYUZkEhzdq8racX
p950
sVSun Kil Moon
p951
V4G0XDEk7RbA4BBCTs917U9
p952
sVJT Hodges
p953
V7AKlIvLsIJNq4xv8Nl6o5A
p954
sVMeytal
p955
V1zA7kwOL2zemXsmRr2xqjP
p956
sVMatt Redman
p957
V0bz9hDpUbAw5JElgEiuIYZ
p958
sVJohn Newman
p959
V34v5MVKeQnIo0CWYMbbrPf
p960
sVEmmure
p961
V1C62FV9Cltn9L4c9jAwCyk
p962
sVHank Williams III
p963
V3qf2YoifC68WTsMv1YIGmh
p964
sV3OH!3
p965
V0FWzNDaEu9jdgcYTbcOa4F
p966
sVFor All Those Sleeping
p967
V5dLBN2tOGTJwWb5oj3QQ9v
p968
sVJeff Bridges
p969
V266j9hfnayXOZhRRi0sTOu
p970
sVDevendra Banhart
p971
V1YZEoYFXx4AxVv13OiOPvZ
p972
sVHaley Reinhart
p973
V5cKlE8f6b26h61Ml7m052Q
p974
sVGraffiti6
p975
V45q5PZHs50HeLBDRgio4GQ
p976
sVShe & Him
p977
V3CIRif6ZAedT7kZSPvj2A4
p978
sVWild Belle
p979
V4wHZkzWXD9GPr4RQAYjUcv
p980
sVLeon Russell
p981
V6r1Xmz7YUD4z0VRUoGm8XN
p982
sVFlogging Molly
p983
V5kQGFREO5FzMBMsAO3cEtj
p984
sVOtherwise
p985
V1OVyBGCKn7vObVIVPXcmLa
p986
sVSleeping Giant
p987
V6nFjP8zBYm0XpUrGMJkRuX
p988
sVPuddle Of Mudd
p989
V3dXaa6jwM7B52GZpaJEIr5
p990
sVChelsea Grin
p991
V4UgQ3EFa8fEeaIEg54uV5b
p992
sVThe Jayhawks
p993
V2UDplVRprMbazU74Hq8OLl
p994
sVGuy Clark
p995
V0Ekfvspc0hlcxdfJJVjcnq
p996
sVJeff Buckley
p997
V3nnQpaTvKb5jCQabZefACI
p998
sVThe Wombats
p999
V0Ya43ZKWHTKkAbkoJJkwIB
p1000
sVManny Manuel
p1001
V7gSCtDiDLABfTqTc1OYjKd
p1002
sVUnderoath
p1003
V3GzWhE2xadJiW8MqRKIVSK
p1004
sVOlly Murs
p1005
V3whuHq0yGx60atvA2RCVRW
p1006
sVBillie Holiday
p1007
V1YzCsTRb22dQkh9lghPIrp
p1008
sVChris Isaak
p1009
V7290H8m1Dwt8G7jm1y9CQx
p1010
sVShe Wants Revenge
p1011
V2zRt0sfxNnqI8gLR7d8gWt
p1012
sVSteel Magnolia
p1013
V7sbNNaQTulMUEWxL5aDTiT
p1014
sVWayne Static
p1015
V7CptjEjYax5Dj92JxX7sav
p1016
sVTrina
p1017
V4PrinKSrmILmo0kERG0Ogn
p1018
sV2NE1
p1019
V1l0mKo96Jh9HVYONcRl3Yp
p1020
sVShelby Lynne
p1021
V3xx17YXYvPl9PBx6Jzalk4
p1022
sVNew Broadway Cast Recording
p1023
V2SdjuCA0BCweBQawrVRvYN
p1024
sVSkull Gang
p1025
V6R4blCfeFM693nL3QeCeAH
p1026
sVChiquis Rivera
p1027
V5QcHBpoxrY7vx3ulMKEvTS
p1028
sVThe Hold Steady
p1029
V3qkZBMz5JgmRN9u5wwhRC6
p1030
sVF.L.Y. (Fast Life Yungstaz)
p1031
V0zOuQuYGGcrtDYYy3YFDMr
p1032
sVWade Bowen
p1033
V3OftZbLfcqulxWNZMX8zLI
p1034
sVKings Kaleidoscope
p1035
V6P9fFbQ875B2bnmdiYwN9A
p1036
sVThe Pretty Reckless
p1037
V2R57sY41L9XvGPiIgHOaYq
p1038
sVBad Religion
p1039
V2yJwXpWAQOOl5XFzbCxLs9
p1040
sVSt. Vincent
p1041
V7bcbShaqKdcyjnmv4Ix8j6
p1042
sVtUnE-YaRdS
p1043
V0asVlqTLu3TimnYVyY5Jxi
p1044
sVBrandy
p1045
V05oH07COxkXKIMt6mIPRee
p1046
sVSkrillex
p1047
V5he5w2lnU9x7JFhnwcekXX
p1048
sVWolf Alice
p1049
V3btzEQD6sugImIHPMRgkwV
p1050
sVJohn Butler Trio
p1051
V6fBF4MULW5yMzyGaon1kUt
p1052
sVMeShell Ndegeocello
p1053
V0uZRjholJ0fVC2J9EvnYnj
p1054
sVLindsey Stirling
p1055
V378dH6EszOLFShpRzAQkVM
p1056
sVE-40
p1057
V3crnzLy8R4lVwaigKEOz7V
p1058
sVRicky Dillard & New G
p1059
V2fLoyBsKDj6JvrJxytD1VF
p1060
sVMilo Greene
p1061
V5euJsEvfrlfhYDorMR40OF
p1062
sVSho Baraka
p1063
V3dpswct31rsudWf8ZASWZe
p1064
sVSons Of The Sea
p1065
V4ozVW1AYXZJtteeFuyMQop
p1066
sVCursive
p1067
V1sylmUjlKYsLA49YtkNHW3
p1068
sVGloriana
p1069
V5RjqSn7vYk8Qb9GeLWRRhB
p1070
sVSondre Lerche
p1071
V0Q6X1jqwOVQuclYp2P1bub
p1072
sVJudas Priest
p1073
V2tRsMl4eGxwoNabM08Dm4I
p1074
sVAs It Is
p1075
V3IXtskFMls8KXRipcIJT9y
p1076
sVTony Testa
p1077
V1RcZalPXVaIpY5FXMHGg9x
p1078
sVPunch Brothers
p1079
V4gFssfOmWNY3LfIZ3zyoy4
p1080
sVFlight Of The Conchords
p1081
V2lRyvAihjwylPfhGqydQbC
p1082
sVKerli
p1083
V4IFgewC2urR62Fwt7uAU03
p1084
sVWalk The Moon
p1085
V6DIS6PRrLS3wbnZsf7vYic
p1086
sVSuicide Silence
p1087
V6HZr7Fs2VfV1PYHIwo8Ylc
p1088
sVThe War On Drugs
p1089
V6g0mn3tzAds6aVeUYRsryU
p1090
sVThe Plot In You
p1091
V1cJ5tVoeAEFcZBAwSZ0CtF
p1092
sVFiction Family
p1093
V4bokLXmltodf13GHlsiQD2
p1094
sVSeth MacFarlane
p1095
V79D4dipwR6scV8AN3dm7gW
p1096
sVGary Numan
p1097
V5KQMtyPE8DCQNUzoNqlEsE
p1098
sVBetraying The Martyrs
p1099
V4tEWLl4loWFLgs25trNnro
p1100
sVRoyal Tailor
p1101
V1CmWVjnzTRTqZqdVIlZSSY
p1102
sVBrokencyde
p1103
V22WwE0lMmGx4AJeyUfT7rh
p1104
sVShai Linne
p1105
V5IOZCSuYRrid1baINgoKIQ
p1106
sVThe Digital Age
p1107
V10e64Uf9i4sWOj7jYaOsSN
p1108
sVKittie
p1109
V0ImEDe9tW5n4pxHOK39zIc
p1110
sVJack Ingram
p1111
V7HNEfHmDlFofG6YnMt8G7N
p1112
sVProzak
p1113
V4NSyPddPUVUfPVMiBn9UAg
p1114
sVTrick Daddy
p1115
V12FHARd9fY0Tu0ila4Ua25
p1116
sVGlasses Malone
p1117
V1TC1Dj7qy98gBriJdOgDMh
p1118
sVNas
p1119
V20qISvAhX20dpIbOOzGK3q
p1120
sVShari Addison
p1121
V5M2KV7EIOTUTZ6ypYBTVC5
p1122
sVCarpenters
p1123
V1eEfMU2AhEo7XnKgL7c304
p1124
sVKane Brown
p1125
V3oSJ7TBVCWMDMiYjXNiCKE
p1126
sVMacy Gray
p1127
V4ylR3zwA0zaapAu94fktwa
p1128
sVLandau Eugene Murphy, Jr.
p1129
V3CTho2tukXtFo2lP1Tm6II
p1130
sVLIGHTS
p1131
V5pdyjBIaY5o1yOyexGIUc6
p1132
sVThe Devil Wears Prada
p1133
V0NbQe5CNgh4YApOCDuHSjb
p1134
sVThe Mountain Goats
p1135
V3hyGGjxu73JuzBa757H6R5
p1136
sVWilson Phillips
p1137
V1yMYjh77WgOVafRkI50mim
p1138
sVRoger Waters
p1139
V40DqL6Tv84cKT2pH2NMs9r
p1140
sVBucky Covington
p1141
V5sVu3ObJTpiln7yRQkMuje
p1142
sVPaul Van Dyk
p1143
V7wU1naftD3lNq7rNsiDvOR
p1144
sVLes Claypool's Duo De Twang
p1145
V4QodPLo98mtJ42gdkGTPuJ
p1146
sVKany Garcia
p1147
V69UypehHabb68utzfjAVlV
p1148
sVSWV
p1149
V2NmK5FyrQ18HOPXq1UBzqa
p1150
sVThe Wrecking
p1151
V5jtvcaIDTs4R9Axv5nmzEN
p1152
sVMichael W. Smith
p1153
V5aBxFPaaGk9204ssHUvXWN
p1154
sVSky Sailing
p1155
V3uC7RGF9NH9DIJWq92UB6O
p1156
sVBing Crosby
p1157
V6ZjFtWeHP9XN7FeKSUe80S
p1158
sVElla Fitzgerald
p1159
V5V0MlUE1Bft0mbLlND7FJz
p1160
sVTexas Hippie Coalition
p1161
V6LG6fIvh2XpjqHUuR7NRtt
p1162
sVNatalia Kills
p1163
V6wdvERzX4CUCOXu6hSS95x
p1164
sVThe Rocket Summer
p1165
V3Uqc6c1DUPkyUQSeatexYU
p1166
sVBlakRoc
p1167
V193xIEtje6LUhfsFZvGjpM
p1168
sVThe Issues
p1169
V3M7vHrfKneQh6y5TmiCPAH
p1170
sVMindy Smith
p1171
V4QGC11o7gQR7MBEJ5cUMSv
p1172
sVIn Flames
p1173
V57ylwQTnFnIhJh4nu4rxCs
p1174
sVOld 97's
p1175
V27AzFtMZhRN78bAMPntbpF
p1176
sVJerry Lee Lewis
p1177
V2zyz0VJqrDXeFDIyrfVXSo
p1178
sVCollective Soul
p1179
V4e5V1Q2dKCzbLVMQ8qbTn6
p1180
sVPretty Lights
p1181
V4iVhFmG8YCCEHANGeUUS9q
p1182
sVBig Daddy Weave
p1183
V4SsMf4SjhOlSqEitcprgBt
p1184
sVHowie Day
p1185
V0ekbDNE2eOq8QiaXM34wer
p1186
sVCasey J
p1187
V0B0NzcRnTARbZc83a34cDd
p1188
sVJoe Cocker
p1189
V3pFCERyEiP5xeN2EsPXhjI
p1190
sVKylie Minogue
p1191
V4RVnAU35WRWra6OZ3CbbMA
p1192
sVThe Lonely Island
p1193
V1f5GqyOPo0CkotzzRwviBu
p1194
sVAce Frehley
p1195
V62olK5zZHSgFUXGDykgBL8
p1196
sVGaither Vocal Band
p1197
V0pjLiK5qb4Zr0PWRNkdd2o
p1198
sVTwista
p1199
V6vbY3hOaCAhC7VjucswgdS
p1200
sVOK Go
p1201
V3hozsZ9hqNq7CoBGYNlFTz
p1202
sVVolbeat
p1203
V0L5fC7Ogm2YwgqVCRcF1bT
p1204
sVJason Isbell And The 400 Unit
p1205
V3Lg3FGwBxOGuefqekQzRUf
p1206
sVGrinderman
p1207
V0IpDaO9A1OW1h0YChKzVaX
p1208
sVNo Bragging Rights
p1209
V6b0TUydvuFHiCMET4SZ0L2
p1210
sVWynton Marsalis
p1211
V375zxMmh2cSgUzFFnva0O7
p1212
sVChris Robinson Brotherhood
p1213
V7Jgf8XBIsOlXS1XOTOwz4A
p1214
sVGavin DeGraw
p1215
V5DYAABs8rkY9VhwtENoQCz
p1216
sVSuperHeavy
p1217
V3D2hT0opR7rrYIngiAdwgC
p1218
sVDaryl Hall
p1219
V5jit9WjiAxxvdA0onOHBLd
p1220
sVSwans
p1221
V79S80ZWgVhIPMCHuvl6SkA
p1222
sVN.W.A.
p1223
V4EnEZVjo3w1cwcQYePccay
p1224
sVNoah And The Whale
p1225
V0aeLcja6hKzb7Uz2ou7ulP
p1226
sVOakenfold
p1227
V75qihTJzReAWM3XgHOXwSl
p1228
sVLos Bukis
p1229
V16kOCiqZ1auY4sokSeZuKf
p1230
sVPJ Morton
p1231
V2FMOHE79X98yptp4RpPrt7
p1232
sVWE the Kings
p1233
V3ao3jf5d70Tf4fPh2bnXVl
p1234
sVSoundtrack
p1235
V1E85wRssrgXOMUgmBOlpw6
p1236
sVBallas Hough Band
p1237
V6QumE1d2QHY6QSqrgmIu2g
p1238
sVAlter Bridge
p1239
V4DWX7u8BV0vZIQSpJQQDWU
p1240
sVBarry White
p1241
V3rfgbfpPSfXY40lzRK7Syt
p1242
sVBobby Valentino
p1243
V6XqizoXz5ZNiq0gEY9fukJ
p1244
sVLady Antebellum
p1245
V32WkQRZEVKSzVAAYqukAEA
p1246
sVEarnest Pugh
p1247
V3qJMkUIxNLC90m6BdgLEFt
p1248
sVThey Might Be Giants
p1249
V6zB02lwP6L6ZH32nggQiJT
p1250
sVKT Tunstall
p1251
V5zzrJD2jXrE9dZ1AklRFcL
p1252
sVToto
p1253
V0PFtn5NtBbbUNbU9EAmIWF
p1254
sVBrandon Flowers
p1255
V18Zv2g2vUcEGqJf6WnjfXN
p1256
sVAbove & Beyond
p1257
V10gzBoINW3cLJfZUka8Zoe
p1258
sVPeter Gabriel
p1259
V7C4sUpWGlTy7IANjruj02I
p1260
sVDavid Garrett
p1261
V33k6kPYIS5TgseAc70LZjy
p1262
sVAlabama & Friends
p1263
V2RFElNB9WJF1U8RFZHplZn
p1264
sVMyron Butler
p1265
V32PQUSIsPMy2NnjgfXRtR6
p1266
sVMindy McCready
p1267
V2uB5sjjJwj4kB6TrRGLYJO
p1268
sVKISS
p1269
V07XSN3sPlIlB2L2XNcTwJw
p1270
sVAB-Soul
p1271
V0g9vAlRPK9Gt3FKCekk4TW
p1272
sVHeart
p1273
V34jw2BbxjoYalTp8cJFCPv
p1274
sVJamie xx
p1275
V7A0awCXkE1FtSU8B0qwOJQ
p1276
sVBill Engvall
p1277
V1sCa5KANHoHo4NuGextoI9
p1278
sVArch Enemy
p1279
V0DCw6lHkzh9t7f8Hb4Z0Sx
p1280
sVThe Rolling Stones
p1281
V22bE4uQ6baNwSHPVcDxLCe
p1282
sVTom DeLonge
p1283
V5h7oZ7t5CU9lst1mIrjp3R
p1284
sVChris Knight
p1285
V2XJzOLYV2mF5K2JfUhJEK0
p1286
sVKaty Perry
p1287
V6jJ0s89eD6GaHleKKya26X
p1288
sVNorthlane
p1289
V3qyg72RGnGdF521zMU02u9
p1290
sVYim Yames
p1291
V3xYTLiIPIJU3KPFB8tqFSd
p1292
sVLorde
p1293
V163tK9Wjr9P9DmM0AVK7lm
p1294
sVThe Damnwells
p1295
V3EGW3674nDZhddywIAAd1g
p1296
sVPrince
p1297
V5a2EaR3hamoenG9rDuVn8j
p1298
sVSworn In
p1299
V6f02jpHpMcw5hWn29WIC52
p1300
sVTraci Braxton
p1301
V17zyzKxYWmKPfhLtcI6n7d
p1302
sVShovels & Rope
p1303
V1M3BVQ36cqPQix8lQNCh4K
p1304
sVTrey Songz
p1305
V2iojnBLj0qIMiKPvVhLnsH
p1306
sVKurt Carr & The Kurt Carr Singers
p1307
V5yoZYhT8x7DXiFl0srkXLQ
p1308
sVDredg
p1309
V1DsdDxHs1zAwOgWDPgNS7l
p1310
sV2 Chainz
p1311
V17lzZA2AlOHwCwFALHttmp
p1312
sVJon Foreman
p1313
V5D3h9ZoobhetjXw3dKhcaq
p1314
sVMos Def
p1315
V0Mz5XE0kb1GBnbLQm2VbcO
p1316
sVJoe Nichols
p1317
V4aJTB79uwT4sP0Nb8QGWHc
p1318
sVAtlas Genius
p1319
V42vg2T0Xg9yPaAgogJzoQH
p1320
sVKONGOS
p1321
V58R5LHkK3vkmEyGUPOR5kS
p1322
sVThe Walkmen
p1323
V6kFay2DQ5aZfeu5OsrF3Pw
p1324
sVLisa Marie Presley
p1325
V1JZsGhTI51A9ybuQZO07wf
p1326
sVChris Jamison
p1327
V6MAAqVPDbQXqzX1fuyY91p
p1328
sVKidz Bop Kids
p1329
V1Vvvx45Apu6dQqwuZQxtgW
p1330
sVPalms
p1331
V73UTl03wWJozyn2hoahK6l
p1332
sVMila J
p1333
V6cN9XwPMj9bWzJ32GC6V7v
p1334
sVSam Hunt
p1335
V2kucQ9jQwuD8jWdtR9Ef38
p1336
sVHalestorm
p1337
V6om12Ev5ppgoMy3OYSoech
p1338
sVLewis Black
p1339
V6XloIaGQ9H1Nn37puBzQqm
p1340
sVRebelution
p1341
V2WjvvwAX0mdWwq3aFuUdtc
p1342
sVThe Both
p1343
V6nH7HjT8QPbZI2wnTjtJui
p1344
sVRussian Circles
p1345
V0AZ3VR0YbFcS0Kgei7L2QF
p1346
sVConjunto Atardecer
p1347
V5Q9lZeceisTLfkThW0fd94
p1348
sVPretty Ricky
p1349
V6XwcepfAsPhrvwziGxhwju
p1350
sVBlessthefall
p1351
V7t2C8WwLyKUKRe0LVh8zl9
p1352
sVAlesso
p1353
V4AVFqumd2ogHFlRbKIjp1t
p1354
sVRobin Thicke
p1355
V0ZrpamOxcZybMHGg1AYtHP
p1356
sVJim Gaffigan
p1357
V0f4zEF6vddRYg7Y3GDL8lk
p1358
sVMarcus Canty
p1359
V3JtMYDSAxiLs0nBouqwuVZ
p1360
sVBoney James
p1361
V1sBRcMH8DDR8Nsk2RoJmjS
p1362
sVClutch
p1363
V161AC1AVRkIGIMxyj5djFQ
p1364
sVTedashii
p1365
V4c6lhwoOrmgNWvl0GxHlW1
p1366
sVMason Jennings
p1367
V6CQrZZn0g2ZNfIcXbi4pdo
p1368
sVLucius
p1369
V1WrqUPWlHN5FXCRcQgrkas
p1370
sVBest Coast
p1371
V5YkBrE0wF8cAlq3GCOw5Eu
p1372
sVDARKSIDE
p1373
V2933wDUojoQmvqSdTAE5NB
p1374
sVTom Jones
p1375
V1T0wRBO0CK0vK8ouUMqEl5
p1376
sVMonster Magnet
p1377
V4hvwEwrCmGj22uURGVET7Q
p1378
sVFrancesca Battistelli
p1379
V29ywwKkxfoH7iWwNY1UezA
p1380
sVPunchline
p1381
V1CK7niAEBeKXci8KtBvxbG
p1382
sVEarl Sweatshirt
p1383
V3A5tHz1SfngyOZM2gItYKu
p1384
sVJoan Jett & the Blackhearts
p1385
V1Fmb52lZ6Jv7FMWXXTPO3K
p1386
sVfor KING & COUNTRY
p1387
V3sDbKMebVH2VYcRSl7u1VC
p1388
sVPavement
p1389
V3inCNiUr4R6XQ3W43s9Aqi
p1390
sVThe Tragically Hip
p1391
V0YMeriqrS3zgsX24nfY0F0
p1392
sVEvidence
p1393
V6VfeYClQyVUCPJdXb9jl3O
p1394
sVPeaches
p1395
V3jjUbnivUIppxcyiVsCu74
p1396
sVScarface
p1397
V19KwjzvIL92r29IINtlPNP
p1398
sVDJ Quik & Kurupt
p1399
V4DDptdrOMVwpJ4oUHkELC8
p1400
sVBirdy
p1401
V2WX2uTcsvV5OnS0inACecP
p1402
sVDefeater
p1403
V1L3hqVCHSL1Ajy3m0z1bAT
p1404
sVGomez
p1405
V4zPGlyitRvJo7iz6OKlETa
p1406
sVHigh On Fire
p1407
V1eiIIImNeUj3vpaocWqoOf
p1408
sVThe Story So Far
p1409
V6meTcQ79DrfkIuSLPZkpBg
p1410
sVKevon Edmonds
p1411
V3an8oUQQJYhvsqS59GQrqR
p1412
sVThe Replacements
p1413
V4WPY0N74T3KUja57xMQTZ3
p1414
sVFee
p1415
V1c8AjXqRjZKeyDA9tLpsL4
p1416
sVJuicy J
p1417
V5gCRApTajqwbnHHPbr2Fpi
p1418
sVTyler, The Creator
p1419
V4V8LLVI7PbaPR0K2TGSxFF
p1420
sVThe Faceless
p1421
V1FQ6uth7icR6Jhla16K2vC
p1422
sVHandguns
p1423
V65bszo3HcI6T49Q6oQSkAl
p1424
sVDJ Shadow
p1425
V5CE2IfdYZEQGIDsfiRm8SI
p1426
sVChris Botti
p1427
V3eFo5fMv53RYZBYlvT5Z6a
p1428
sVMark Ronson
p1429
V3hv9jJF3adDNsBSIQDqcjp
p1430
sVPoison
p1431
V1fBCIkoPOPCDLUxGuWNvyo
p1432
sVRosanne Cash
p1433
V6lx6XS8umFqYRVbBErx9fE
p1434
sVBrian Courtney Wilson
p1435
V5K2BdUwQNqXy70BX2L8BQx
p1436
sVFeed Me
p1437
V5FWi1mowu6uiU2ZHwr1rby
p1438
sVArmin Van Buuren
p1439
V0SfsnGyD8FpIN4U4WCkBZ5
p1440
sVSlaves
p1441
V4rMxZovfLSDjEL9eI2pKo7
p1442
sVAll Time Low
p1443
V46gyXjRIvN1NL1eCB8GBxo
p1444
sVSoul Asylum
p1445
V02da1vDJ2hWqfK7aJL6SJm
p1446
sVJeff Loomis
p1447
V1bqlyIXRTCilCmvAr1newg
p1448
sVSuffocation
p1449
V4ItRDIouodpnW6nm4TYDk1
p1450
sVGrace Potter & The Nocturnals
p1451
V23OknxGcY1i5xX1TRPilMj
p1452
sVMAGIC!
p1453
V0DxeaLnv6SyYk2DOqkLO8c
p1454
sVRatatat
p1455
V57dN52uHvrHOxijzpIgu3E
p1456
sVFour Year Strong
p1457
V0qqxspZOkbN00bu6DaRIrn
p1458
sVThe Tallest Man On Earth
p1459
V2BpAc5eK7Rz5GAwSp9UYXa
p1460
sVEl DeBarge
p1461
V5xO4f5QyPMYnCPRyRveBSD
p1462
sVFlying Lotus
p1463
V29XOeO6KIWxGthejQqn793
p1464
sVHootie & The Blowfish
p1465
V08ct2eZF5lUPdJpHwNKWof
p1466
sVDevice
p1467
V0fpqZQia1PSW32o9tN5NKc
p1468
sVCalexico
p1469
V1OmdWpAh1pucAuZPzJaxIJ
p1470
sVFrightened Rabbit
p1471
V6fVcDUckTwxqg56qNsEvUr
p1472
sVMastodon
p1473
V1Dvfqq39HxvCJ3GvfeIFuT
p1474
sVRehab
p1475
V1qh1aHXy7LRcb7eyriuJTS
p1476
sVOne eskimO
p1477
V1K1m6K2IZOcbyabxB2jXjg
p1478
sVThe xx
p1479
V3iOvXCl6edW5Um0fXEBRXy
p1480
sVGalantis
p1481
V4sTQVOfp9vEMCemLw50sbu
p1482
sVRoky Erickson With Okkervil River
p1483
V2y55570aXLIvGoXpTICdWL
p1484
sVGeorge Thorogood
p1485
V1avbhJvMxjF2VhG7BXXn60
p1486
sVRun River North
p1487
V0INDB6Snts5NDbzh8jC3lk
p1488
sVThe White Tie Affair
p1489
V4lmpEOYpB8yNe8buBDP5vF
p1490
sVGary Go
p1491
V6beTArFVpUujvkHi9FVPqs
p1492
sVIce Nine Kills
p1493
V52qKfVcIV4GS8A8Vay2xtt
p1494
sVThe Cars
p1495
V6DCIj8jNaNpBz8e5oKFPtp
p1496
sVA Perfect Circle
p1497
V4DFhHyjvGYa9wxdHUjtDkc
p1498
sVJoel Crouse
p1499
V4dv6khcueYOkWzoFRZgtPj
p1500
sVJamie Foxx
p1501
V7LnaAXbDVIL75IVPnndf7w
p1502
sVIan Anderson
p1503
V7871fSXc37bZiC4UXaY35j
p1504
sVAlexis & Fido
p1505
V7tU1VKOuxiNZwBZC6RHidA
p1506
sVIce Cube
p1507
V3Mcii5XWf6E0lrY3Uky4cA
p1508
sVKaren O And The Kids
p1509
V3YLiOsRRbTVzw573enfSkH
p1510
sVRhett Miller
p1511
V0wNZd1CMOsFZ0TiBhlqjD5
p1512
sVPinback
p1513
V4ZWvN9FEfdTea1SEHjpTNi
p1514
sVCrowded House
p1515
V7ohlPA8dRBtCf92zaZCaaB
p1516
sVNatasha Bedingfield
p1517
V7o95ZoZt5ZYn31e9z1Hc0a
p1518
sVDr. John
p1519
V320TrJub4arztwXRm7kqVO
p1520
sVStone Sour
p1521
V49qiE8dj4JuNdpYGRPdKbF
p1522
sVHavok
p1523
V2jw4wgixxa20jls9N3Bdpq
p1524
sVLocal Natives
p1525
V75dQReiBOHN37fQgWQrIAJ
p1526
sVLeighton Meester
p1527
V481VlDdXZAIRxnHyywNbXn
p1528
sVBring Me The Horizon
p1529
V1Ffb6ejR6Fe5IamqA5oRUF
p1530
sVChelsea Wolfe
p1531
V6ZK2nrW8aCTg8Bid7I7N10
p1532
sVMissy Higgins
p1533
V6aP8ry8w3bSNyfyqhE8rGf
p1534
sVAmerican Football
p1535
V5FwydyGVcsQllnM4xM6jw4
p1536
sVN'Klabe
p1537
V3sXLxfvWccL0EI4Q3xxO3q
p1538
sVCarbon Leaf
p1539
V4bofI6U62c9ZvTOrORFVwc
p1540
sVSkizzy Mars
p1541
V00Z3UDoAQwzvGu13HoAM7J
p1542
sVMichael Sweet
p1543
V1vg0a7NOKvHrO1xY6pk2wM
p1544
sVAtlas Sound
p1545
V3kGhAL9j1WyNjNkWTRQd8T
p1546
sVWALK THE MOON
p1547
V6DIS6PRrLS3wbnZsf7vYic
p1548
sVFences
p1549
V6vjCIhbLklvyaDBgCcpH57
p1550
sVPak X Emh
p1551
V7FOjWkXe3d8eyCVCmG3OiY
p1552
sVJars Of Clay
p1553
V1lMaDSraU3oiNUsVWJLHdF
p1554
sVA Firm Handshake
p1555
V2FNefsUIddQsI81cmIJhta
p1556
sVBuckcherry
p1557
V0yN7xI1blow9nYIK0R8nM7
p1558
sVIvy Queen
p1559
V6p2442ymrT9lZEuCZJdYcH
p1560
sVThe Robert Cray Band
p1561
V6cAtGdArQhrU7tTBoeWY3P
p1562
sVJustin Bieber
p1563
V1uNFoZAHBGtllmzznpCI3s
p1564
sVBrooke White
p1565
V1feuQE7d9izI54MoL5Lc7t
p1566
sVRobbie Williams
p1567
V2HcwFjNelS49kFbfvMxQYw
p1568
sVSublime With Rome
p1569
V3XXrhkZKSGd3CUJQFnx5tQ
p1570
sV(hed) p.e.
p1571
V0xIChbcTsuYLueN1oEsX9v
p1572
sVGorilla Zoe
p1573
V3Y365ZqTf6fJ4ZcRnLKPGt
p1574
sVWhiskey Myers
p1575
V26opZSJcXshCmCwxgZQmBc
p1576
sVTasha Page-Lockhart
p1577
V5zZQLaa0QywvY1HZdOAR3w
p1578
sVMatthew Morrison
p1579
V3Fx1vJHj530oWC2AxnZq5z
p1580
sVTyler Hilton
p1581
V1bKdOEfMk4ftojJQdyV2Ik
p1582
sVDonald Fagen
p1583
V0S1SjYebdSaiMpI8xSW2Wb
p1584
sVRed Fang
p1585
V3u4HBuoQ4dgPBzX2Q9uf5S
p1586
sVAbandon All Ships
p1587
V3GsRbtyKPsORUduU4xAaQS
p1588
sVSerj Tankian
p1589
V0BEI7i5sgUuivcfwXLzFmM
p1590
sVThe Birthday Massacre
p1591
V16AVsBqzmIZTNHd0eX8VbK
p1592
sVKing Krule
p1593
V4wyNyxs74Ux8UIDopNjIai
p1594
sVZ-Ro
p1595
V6MrdwyCIKbpXmTKQBlG3uq
p1596
sVThe Statler Brothers
p1597
V5PSWc8Y94zFsAtZlTe7ipI
p1598
sVLykke Li
p1599
V6oBm8HB0yfrIc9IHbxs6in
p1600
sVHouse Of Heroes
p1601
V77JuhnpOBW0tatc1nJg6qB
p1602
sVCarrie Underwood
p1603
V4xFUf1FHVy696Q1JQZMTRj
p1604
sVEmmylou Harris
p1605
V5s6TJEuHTr9GR894wc6VfP
p1606
sV"Weird Al" Yankovic
p1607
V1bDWGdIC2hardyt55nlQgG
p1608
sVLower Dens
p1609
V5uTJLo3c4ZHpH8oEwGxYUN
p1610
sVPlain White T's
p1611
V1g1yxsNVPhMUl9GrMjEb2o
p1612
sVmatchbox 20
p1613
V7mAFUz7CpH15LTOHWa1bCM
p1614
sVAdam Lambert
p1615
V6prmLEyn4LfHlD9NnXWlf7
p1616
sVMumford & Sons
p1617
V3gd8FJtBJtkRxdfbTu19U2
p1618
sVAtreyu
p1619
V3LkSiHbjqOHCKCqBfEZOTv
p1620
sVShiny Toy Guns
p1621
V6UocZe4AprSYBvmn3J0oqY
p1622
sVHeaven & Hell
p1623
V4UjiBRkTw9VmvDZiJZKPJ7
p1624
sVLeeland
p1625
V6j1fmLreVuAay7k6Gudfa2
p1626
sVHit The Lights
p1627
V5fyHpJg1xW8OZqPyzmQv2C
p1628
sVWilliam Clark Green
p1629
V0cshCXEe1I7wlRwdrL91ZQ
p1630
sVBrand New
p1631
V168dgYui7ExaU612eooDF1
p1632
sVMGK
p1633
V6TIYQ3jFPwQSRmorSezPxX
p1634
sVLaura Bell Bundy
p1635
V32bisvV1h0yF3PeKmWI6sj
p1636
sVRev Theory
p1637
V10n5DVRlZbjbZ5ffpwpn6l
p1638
sVPlumb
p1639
V2tbxcCCM7A71cmkzuB8lyH
p1640
sVMarvin Sapp
p1641
V5r0KYGxdIZEHZ6z6XbkVbo
p1642
sVJens Lekman
p1643
V7tzI4rSFTHafjF18ZrNZWx
p1644
sVJoe Walsh
p1645
V5bDxAyJiTYBat1YnFJhvEK
p1646
sVBrian Wilson
p1647
V4Q82S0VzF8qlCb4PnSDurj
p1648
sVMotion City Soundtrack
p1649
V19zqV9DV3txjMUjHvltl2D
p1650
sVKeith & Kristyn Getty
p1651
V0I4Bk2s2BUJyykCwtxx8Xx
p1652
sVToro Y Moi
p1653
V6O4EGCCb6DoIiR6B1QCQgp
p1654
sVSam Cooke
p1655
V6hnWRPzGGKiapVX1UCdEAC
p1656
sVJames Blunt
p1657
V7KMqksf0UMdyA0UCf4R3ux
p1658
sVLyle Lovett
p1659
V0zlJDQgqnr9AocrH9gs1Es
p1660
sVHot Water Music
p1661
V4dmaYARGTCpChLhHBdr3ff
p1662
sVThe Fall Of Troy
p1663
V5fuQrhMRYMtoO9uOlFad4P
p1664
sVThe Go! Team
p1665
V6veTV9sF06FBf2KN0xAdvo
p1666
sVJimmy Webb
p1667
V0YJUdunUDA1pTDxJ8AJlyB
p1668
sVFitz And The Tantrums
p1669
V4AcHt3JxKy59IX7JNNlZn4
p1670
sVJack White
p1671
V4FZ3j1oH43e7cukCALsCwf
p1672
sVBilly Ray Cyrus
p1673
V60rpJ9SgigSd16DOAG7GSa
p1674
sVThe Prodigy
p1675
V4k1ELeJKT1ISyDv8JivPpB
p1676
sVAllstar Weekend
p1677
V67tSTaaEena434STFKeMJJ
p1678
sVP.O.S.
p1679
V6PqtTOqDDdBJQzgCW2TbwU
p1680
sVWhitechapel
p1681
V5274obTQJjzjyycRyJlfml
p1682
sVManchester Orchestra
p1683
V5wFXmYsg3KFJ8BDsQudJ4f
p1684
sVAnuna
p1685
V59OUpsEQlEUXDHVEOPQ7sC
p1686
sVErykah Badu
p1687
V7IfculRW2WXyzNQ8djX8WX
p1688
sVNothing
p1689
V60mqEPQp1eNjuwt1Z4yL4J
p1690
sVAndrew Jackson Jihad
p1691
V7JFLvUBiUQws6ub4qyJQN5
p1692
sVTestament
p1693
V28hJdGN1Awf7u3ifk2lVkg
p1694
sVImelda May
p1695
V6AnjHMqEAps8VJdHU8RykH
p1696
sVJuanes
p1697
V0UWZUmn7sybxMCqrw9tGa7
p1698
sVJason Castro
p1699
V6lv3DKGOLy7HkRUmt6DiEd
p1700
sVFlyleaf
p1701
V4IliztYDlfMvzQzbx50o60
p1702
sVThe Cheetah Girls
p1703
V4ntkql3f3ect7NDRUJ7aAY
p1704
sVThe White Buffalo
p1705
V3ohcHMuUq1717s8AH17hfT
p1706
sVRob Thomas
p1707
V3aBkeBhwadnWMWoVJ2CxJC
p1708
sVElvis Costello And The Roots
p1709
V5uaPSAp8fyAv9eAcWKwNIx
p1710
sVJadakiss
p1711
V5pnbUBPifNnlusY8kTBivi
p1712
sVHiatus Kaiyote
p1713
V43JlwunhXm1oqdKyOa2Z9Y
p1714
sVKenny Chesney
p1715
V3grHWM9bx2E9vwJCdlRv9O
p1716
sVCanon
p1717
V1dIjbaW9JTTQQ7ufrQnGsq
p1718
sVEve 6
p1719
V4Eqd24yS5YcxI8b6Xfuwr8
p1720
sVI The Mighty
p1721
V1aK2PiGHyEgc4wAIKQzMj2
p1722
sVLady GaGa
p1723
V1HY2Jd0NmPuamShAr6KMms
p1724
sVBrother Ali
p1725
V6CsleyOZtyt16saX8WhzDx
p1726
sVMary Lambert
p1727
V5Z2NUZiY3FA00HKu5WTMhA
p1728
sVThe Nick Hexum Quintet
p1729
V2qUgtUPLl9HM3UHM58yeqM
p1730
sVBand Of Horses
p1731
V0OdUWJ0sBjDrqHygGUXeCF
p1732
sVLana Del Rey
p1733
V00FQb4jTyendYWaN8pK0wa
p1734
sVBloc Party
p1735
V3MM8mtgFzaEJsqbjZBSsHJ
p1736
sVLeCrae
p1737
V1CFCsEqKrCyvAFKOATQHiW
p1738
sVMormon Tabernacle Choir
p1739
V2duo4NJtUrLaI38trK0hht
p1740
sVCheap Trick
p1741
V1LB8qB5BPb3MHQrfkvifXU
p1742
sVk.flay
p1743
V0pCNk4D3E2xtszsm6hMsWr
p1744
sVThe Secret Sisters
p1745
V5fIZHCg2de8322HZodBDWL
p1746
sVJ.J. Hairston & Youthful PRaise
p1747
V2PiKaajF8T1X6KGgvYlxOD
p1748
sVSimple Plan
p1749
V2p4FqHnazRucYQHyDCdBrJ
p1750
sVRed
p1751
V01crEa9G3pNpXZ5m7wuHOk
p1752
sV5 Seconds Of Summer
p1753
V5Rl15oVamLq7FbSb0NNBNy
p1754
sVKings Of Leon
p1755
V2qk9voo8llSGYcZ6xrBzKx
p1756
sVZedd
p1757
V2qxJFvFYMEDqd7ui6kSAcq
p1758
sVMindless Behavior
p1759
V2waKklOyXKNqhqIOmE4yBA
p1760
sVTennessee Ernie Ford
p1761
V7u6FSuqT3SWE2kO8rNVjfp
p1762
sVThe Bronx
p1763
V7nqSDaZKccpnUqjzedyZF4
p1764
sVEverclear
p1765
V694QW15WkebjcrWgQHzRYF
p1766
sVFamily Force 5
p1767
V6aUV3Fndwagje8d4rBA3xw
p1768
sVThe Low Anthem
p1769
V27aJr79YUyfK5ZrcFxF5u0
p1770
sVTony Touch
p1771
V19MNIbED5OlB4TxiAYStlH
p1772
sVAlejandro Sanz
p1773
V5sUrlPAHlS9NEirDB8SEbF
p1774
sVCults
p1775
V3Oim8XBPbznAa8Jj8QzNc8
p1776
sVCally
p1777
V7IiSjbJT8Q23ws7br745z8
p1778
sVBuddy Holly
p1779
V3wYyutjgII8LJVVOLrGI0D
p1780
sVAlejandro Escovedo
p1781
V1Cc79YAHP7xvQAVQSjveP6
p1782
sVDJ Kayslay
p1783
V1giPduZUUFru23D2icr2A8
p1784
sVHopsin
p1785
V7EWU4FhUJM1sZQgQKdENeT
p1786
sVJoy Williams
p1787
V4TCXgdDPm10ensLNCVnIYa
p1788
sVNew Found Glory
p1789
V4ghjRm4M2vChDfTUycx0Ce
p1790
sVSet Your Goals
p1791
V2Ivw6FhAZpa7kiAXWztCq5
p1792
sVBlack Mountain
p1793
V00sAr10UTV1JZtHqxsLVn4
p1794
sVMichael Jackson
p1795
V3fMbdgg4jU18AjLCKBhRSm
p1796
sVBreathe Carolina
p1797
V53M4Iv2RkzzxFFvW2B1jhC
p1798
sVBad Company
p1799
V5AEG63ajney2BoDXi0Vb84
p1800
sVJake Miller
p1801
V3gggmBN0erstm3YJvEGe3t
p1802
sVMatty Mullins
p1803
V2X6VbP5vxuup0exzZ8vhot
p1804
sVBoston
p1805
V29kkCKKGXheHuoO829FxWK
p1806
sVSara Evans
p1807
V7qvsLYsYP0MHD7jkdv6DAG
p1808
sVJohn Mark McMillan
p1809
V0T1KC0OHfbRO0O5bNH2tek
p1810
sVTravis
p1811
V3bUwxJgNakzYKkqAVgZLlh
p1812
sVDaylight
p1813
V2YBfAy7PwhFaLNqIo99uTv
p1814
sVAll Shall Perish
p1815
V7GkGdNLPzWw4e6ctwKvI2x
p1816
sVMaino
p1817
V20apXQGKM00jJTvYfyKwlb
p1818
sVSturgill Simpson
p1819
V3vDpQbGnzRbRVirXlfQagB
p1820
sVMarty Stuart And His Fabulous Superlatives
p1821
V559WWygoFrpAD58V0PqVwO
p1822
sVKishi Bashi
p1823
V3LVPGE5jPPwtbGslx07YR0
p1824
sVChris Webby
p1825
V3IstlZaHyUP9SONpulb4SM
p1826
sVLloyd Banks
p1827
V3vDUJHQtqT3jFRZ2ECXDTi
p1828
sVIration
p1829
V0q9lPhJHW5R9J7RXIJRbTk
p1830
sVRandy Houser
p1831
V56x8mYvS3cyDGAi8N2FxbB
p1832
sVThe Winery Dogs
p1833
V0XQIFN6X5mD98c6gOSLtfJ
p1834
sVDuane Allman
p1835
V3keUIwmPM4awpPxiy9ZQ1m
p1836
sVAll Sons & Daughters
p1837
V44LPOpECjnIlnwH91wo2ir
p1838
sVShirley Caesar
p1839
V5hrUVXJsPParZB87QtAz1R
p1840
sVWithin Temptation
p1841
V3hE8S8ohRErocpkY7uJW4a
p1842
sVMuteMath
p1843
V1J9Z9bhqkgyqseEi85cbyx
p1844
sVCobra Starship
p1845
V2aYJ5LAta2ScCdfLhKgZOY
p1846
sVRicky Dillon
p1847
V21C8E582E9xU9S5yiN7cip
p1848
sVOriginal Broadway Cast
p1849
V14RYY9XL83LYPpsHle6W9G
p1850
sVTonic
p1851
V1JtGTGH2IBdm5z9EGEC7W3
p1852
sVGoatwhore
p1853
V59YfPxuxGghrdPumu6aFKI
p1854
sVThe Mars Volta
p1855
V75U40yZLLPglFgXbDVnmVs
p1856
sVDethklok
p1857
V1bYptr95rEofNKkQJ8R98B
p1858
sVBig Grams
p1859
V4jU68Hm8np6WNZXMqi7rz3
p1860
sVLee Brice
p1861
V5Zq7R5qmi58ByYyBQTlNuk
p1862
sVChunk! No, Captain Chunk!
p1863
V03jrbNTeSKP9m161juhm0h
p1864
sV8Ball
p1865
V6B16XZWuJ9VERn7pXxCIda
p1866
sVScott Stapp
p1867
V6HySSUk2KthFj3bd9R61ql
p1868
sVThe Hives
p1869
V4DToQR3aKrHQSSRzSz8Nzt
p1870
sVThe Big Pink
p1871
V4xM0Rz2FbjZevoVLVJUgEQ
p1872
sVValerie June
p1873
V4QZdOCb3UacKbQ1ybDFAKM
p1874
sVTove Lo
p1875
V4NHQUGzhtTLFvgF5SZesLK
p1876
sVDefault
p1877
V4nCzT3o7lMgCWBcmdwCMsT
p1878
sVTessanne Chin
p1879
V3gtaVMrNBTAFtlzYTeHNua
p1880
sVGoapele
p1881
V5cgtn5YWC3Fr06wTps1dBq
p1882
sVEve
p1883
V4d3yvTptO48nOYTPBcPFZC
p1884
sVFoo Fighters
p1885
V7jy3rLJdDQY21OgRLCZ9sD
p1886
sVJimmy Cliff
p1887
V3rJ3m1tM6vUgiWLjfV8sRf
p1888
sVKristian Stanfill
p1889
V61fqRzZ9aHyPeTdUIqEEFx
p1890
sVInterpol
p1891
V3WaJSfKnzc65VDgmj2zU8B
p1892
sVSaosin
p1893
V1NUOfvAhA9AvsF1ISMkgHX
p1894
sVVicente Fernandez
p1895
V4PPoI9LuYeFX8V674Z1R6l
p1896
sVJ Mascis
p1897
V1PokjXeIq2zVosXbTEaNlx
p1898
sVThe Roots
p1899
V78xUyw6FkVZrRAtziFdtdu
p1900
sVTalib Kweli
p1901
V0lEssBAxQl2In4RpaB1C2Y
p1902
sVMichael Johns
p1903
V4eMAGxvPy47T4NX9MjTuuB
p1904
sVIn Fear And Faith
p1905
V19HgKsSbdKYlYmitK3Y8uP
p1906
sVKevin Fowler
p1907
V6NKQIkHTjxD5Ovj6znGV1n
p1908
sVStevie Ray Vaughan
p1909
V5fsDcuclIe8ZiBD5P787K1
p1910
sVSunny Sweeney
p1911
V3uBMhKEXqr2UtRlx7Jn9LL
p1912
sVThe Boxer Rebellion
p1913
V7DEseTqRODmSu3C7jxCHl5
p1914
sVThe Black Eyed Peas
p1915
V1yxSLGMDHlW21z4YXirZDS
p1916
sVHoobastank
p1917
V2MqhkhX4npxDZ62ObR5ELO
p1918
sVk.d. lang And The Siss Boom Bang
p1919
V5ttpZBMSaJ9TjCL37SQDqN
p1920
sVEpica
p1921
V5HA5aLY3jJV7eimXWkRBBp
p1922
sVOtep
p1923
V6iswhpc2w6na3lS1vehFXF
p1924
sVSweet & Lynch
p1925
V5NdUTFuHVuNQRmtdyHtFFT
p1926
sVDiana Ross & The Supremes
p1927
V0rXI0q8Cahq6numvPlloaq
p1928
sVKiesza
p1929
V4zxvC7CRGvggq9EWXOpwAo
p1930
sVBob Seger
p1931
V485uL27bPomh29R4JmQehQ
p1932
sVCourtney Barnett
p1933
V4OOlG5eBXSkSAAEeKjJb5Y
p1934
sVThe Wood Brothers
p1935
V6FxuPrpa8phaP3Xn73emhT
p1936
sVJenny And Johnny
p1937
V2jT6aBupO5X5ybwUsjzws4
p1938
sVNorah Jones
p1939
V2Kx7MNY7cI1ENniW7vT30N
p1940
sVCompany Of Thieves
p1941
V3lQPc6jpkeuF87zv2DdNIT
p1942
sVAaron Shust
p1943
V0oM8RWZXhJYSnzGdepP7fM
p1944
sVChristopher Owens
p1945
V0ukgSx1gUt5rUihbNh46qy
p1946
sVLeon Bridges
p1947
V3qnGvpP8Yth1AqSBMqON5x
p1948
sVPeriphery
p1949
V6d24kC5fxHFOSEAmjQPPhc
p1950
sVJeff Beck
p1951
V0AD4odMWVQ2wUSlgxOB5Rl
p1952
sVNonpoint
p1953
V6BdSOHfQ6kMg0tbAFlXR1z
p1954
sVTaylor Swift
p1955
V06HL4z0CvFAxyc27GXpf02
p1956
sVGo Radio
p1957
V0abIHznUj0oKhDB29cpBZ9
p1958
sVDecyfer Down
p1959
V4C0vbj4LNsNUjH0Q9IFW3B
p1960
sVIl Volo
p1961
V0dE9ooTNz8iEKIKItRI66t
p1962
sVDespised Icon
p1963
V3MjNMjqBpaQ0P8ebfbZjYn
p1964
sVSantigold
p1965
V6Jrxnp0JgqmeUX1veU591p
p1966
sVJoell Ortiz
p1967
V1q13yHC6Syg5Y8iPLrRnCq
p1968
sVNorth Point InsideOut
p1969
V4EOKpEhAFc9ISyMJHZlQYm
p1970
sVOasis
p1971
V2DaxqgrOhkeH0fpeiQq2f4
p1972
sVMac Miller
p1973
V4LLpKhyESsyAXpc4laK94U
p1974
sVThe Robertsons
p1975
V7Hv1GlNkBy4muBAWYOlfpz
p1976
sVPRhyme
p1977
V4ypEjUTTCcPB0dgjQBQyf5
p1978
sVPrimus
p1979
V64mPnRMMeudAet0E62ypkx
p1980
sVI Prevail
p1981
V3Uobr6LgQpBbk6k4QGAb3V
p1982
sVLuis Enrique
p1983
V2mUI4K6csTQd3jieswcmiI
p1984
sVTrapt
p1985
V1UdQqCUR7RwB9YYJONwbdM
p1986
sVDan + Shay
p1987
V7z5WFjZAIYejWy0NI5lv4T
p1988
sVTank
p1989
V4mwXUEKaW4ftbncf9Hi58l
p1990
sVLeonard Cohen
p1991
V5l8VQNuIg0turYE1VtM9zV
p1992
sVJason Gray
p1993
V4i2mkyKkRrc0OvPrWqb4BE
p1994
sVClay Aiken
p1995
V13aBWT8LN4oNWWGFOu96MA
p1996
sVR. City
p1997
V4TH4BHy0LdBi3dpBW4P2UX
p1998
sVCommitted
p1999
V0zXJ4RC28rSgZ7tR5XgXdH
p2000
sVAvant
p2001
V0AunegKKH2ys98aLxq8G1A
p2002
sVCassandra Wilson
p2003
V6TZ5t4kclsmGWHqb3mGyha
p2004
sVBirdman
p2005
V35sCXuy5gN6Or69rZ9vqBs
p2006
sVStray From The Path
p2007
V5tGG1slV9pkcydU5eQSIvm
p2008
sVBob Schneider
p2009
V4YOxTnmYogOpUPxrNTacvQ
p2010
sVPhillip Phillips
p2011
V6p5JxpTc7USNnBnLzctyd4
p2012
sVCake
p2013
V6A43Djmhbe9100UwnI7epV
p2014
sVKings Of Convenience
p2015
V41AbNVba2ccpmcc9QtOJE7
p2016
sVBarlowGirl
p2017
V3VMSmJURVM7s6LkrIaPZvi
p2018
sVFun.
p2019
V5nCi3BB41mBaMH9gfr6Su0
p2020
sVJohn Tesh
p2021
V59B2CHEMh1to8diq0jB92r
p2022
sVKeith Sweat
p2023
V2r09Inibex3C4ZNTUVSG3m
p2024
sVThe Veronicas
p2025
V1dIdBZaaHRW2bDTkHNfWln
p2026
sVAndrew Belle
p2027
V3UAk61T8PItbpgEi9u7ofY
p2028
sVMatt And Kim
p2029
V4MSMDY0ClgWqXApU53I1L1
p2030
sVVinnie Paz
p2031
V3rExe3A3FzAmYDlQuvW2Wx
p2032
sVYou Me At Six
p2033
V1kNQXvepPjaPgUfeDAF2h6
p2034
sVSelena Gomez
p2035
V0C8ZW7ezQVs4URX5aX7Kqx
p2036
sVAllison Iraheta
p2037
V48E5csclQ92SrzSRQmEeC4
p2038
sVHuey Lewis & The News
p2039
V7A9yZMTrFZcgEWAX2kBfK6
p2040
sVJessica Sanchez
p2041
V3xBbmWwDPhEaGcwWgBarkI
p2042
sVSeven Lions
p2043
V6fcTRFpz0yH79qSKfof7lp
p2044
sVNicole C. Mullen
p2045
V3RHwCqK7oe6mucuIgz62BF
p2046
sVWill Downing
p2047
V69k2JfIQxMpBbc1wtmHWZY
p2048
sVMisterwives
p2049
V5ivCbtrcD5N4rD337xIb2z
p2050
sVKris Kristofferson
p2051
V0vYQRW5LIDeYQOccTviQNX
p2052
sVBill Callahan
p2053
V682LyslPNQ1DIHmJIN9H1P
p2054
sVFor The Fallen Dreams
p2055
V0rsHKddRhuze38fVL0egOY
p2056
sVRihanna
p2057
V5pKCCKE2ajJHZ9KAiaK11H
p2058
sVRick Ross
p2059
V1sBkRIssrMs1AbVkOJbc7a
p2060
sVTom Petty
p2061
V2UZMlIwnkgAEDBsw1Rejkn
p2062
sVEdward Sharpe & The Magnetic Zeros
p2063
V7giUHu5pv6YTZgSkxxCcgh
p2064
sVDir En Grey
p2065
V3kNqzLmW33fQIfmZ1OfqMA
p2066
sVJosh Ritter
p2067
V6igfLpd8s6DBBAuwebRUuo
p2068
sVThe Offspring
p2069
V5LfGQac0EIXyAN8aUwmNAQ
p2070
sVRapture Ruckus
p2071
V0YEt8MbsfCuhdm9FomLNqM
p2072
sVCoal Chamber
p2073
V69k6uTSZMPLpSnhmLCiKxQ
p2074
sVHinder
p2075
V6BMhCQJYHxxKAeqYS1p5rY
p2076
sVDamien Rice
p2077
V14r9dR01KeBLFfylVSKCZQ
p2078
sVEgypt Central
p2079
V1d5wNTZ8WZYE5WuXXjug9w
p2080
sVSteve Martin
p2081
V1Bd4UVlqlaKEXYRG3wgrCK
p2082
sVMiddle Brother
p2083
V5au2vhHl8DViD9PUxUZBTb
p2084
sVStarbomb
p2085
V1DLBs2535MM32RYqirYYY4
p2086
sVPeeWee
p2087
V34w2CxXOMbQeaIkoKDiJhp
p2088
sVEric Roberson
p2089
V2ewAU3d4El7WSIxWUJaZJn
p2090
sVKenny Loggins
p2091
V3Y3xIwWyq5wnNHPp5gPjOW
p2092
sVTom Waits
p2093
V7x83XhcMbOTl1UdYsPTuZM
p2094
sVCarolina Chocolate Drops
p2095
V6H8Sj9gFyDYJ3T63LA3DKz
p2096
sVElectric Light Orchestra
p2097
V7jefIIksOi1EazgRTfW2Pk
p2098
sVThurston Moore
p2099
V1J4ACYB6yMqd79q3rjskqs
p2100
sVInfected Mushroom
p2101
V6S2tas4z6DyIklBajDqJxI
p2102
sVKutless
p2103
V3lLT23km6QvzYCojCXAYtX
p2104
sVEverlast
p2105
V14ZxDAK6ITtZZqPdiWrvSn
p2106
sVR5
p2107
V5aptPwTkTKmlPx6csmNJLA
p2108
sVConor Oberst
p2109
V2Z7gV3uEh1ckIaBzTUCE6R
p2110
sVDuncan Sheik
p2111
V3AO6RTDA16mg8czQI5Y9K0
p2112
sVEvans Blue
p2113
V6pDRa5fS3myWSP0fpIUcNl
p2114
sVBob Dylan
p2115
V74ASZWbe4lXaubB36ztrGX
p2116
sVVince Staples
p2117
V68kEuyFKyqrdQQLLsmiatm
p2118
sVHank Williams, Jr.
p2119
V2dyeCWctcFRt3Pha76ONgb
p2120
sVThe Floacist
p2121
V2vlbiZTuFOGEwyCZbXOCPL
p2122
sVKyle
p2123
V4qBgvVog0wzW75IQ48mU7v
p2124
sVJanet Jackson
p2125
V4qwGe91Bz9K2T8jXTZ815W
p2126
sVThe Vaccines
p2127
V0Ak6DLKHtpR6TEEnmcorKA
p2128
sVMary Chapin Carpenter
p2129
V0qAmeOULjwn04k6jMMeDyr
p2130
sVProtest The Hero
p2131
V6z3BjfmgvDUIHaJ0UPTtrQ
p2132
sVBetty Who
p2133
V0t3QQl52F463sxGXb1ckhB
p2134
sVAC/DC
p2135
V711MCceyCBcFnzjGY4Q7Un
p2136
sVDeer Tick
p2137
V3rT8xTwSOMDURtWpPyoKIO
p2138
sVPaul Rodgers
p2139
V2gaWNB3YrlTc0KRlHNqhol
p2140
sVBeartooth
p2141
V6vwjIs0tbIiseJMR3pqwiL
p2142
sVCharlotte Gainsbourg
p2143
V2rBcvLKWCZs9w1qIWv560v
p2144
sVBad Books
p2145
V0e9H8oaYYRCKFXOVv848nt
p2146
sVAzealia Banks
p2147
V7gRhy3MIPHQo5CXYfWaw9I
p2148
sVAmerican Bang
p2149
V2cVonbUr1VfXFHGufgqiNh
p2150
sVLindemann
p2151
V65A714FqhSPjoFZeffQbTv
p2152
sVNewSong
p2153
V1Ng8jGC4dL0gkkuh77pbpX
p2154
sVAndy Grammer
p2155
V2oX42qP5ineK3hrhBECLmj
p2156
sVFamous Last Words
p2157
V3rxPTMtxVQKNAbBBl6cQrw
p2158
sVArctic Monkeys
p2159
V7Ln80lUS6He07XvHI8qqHH
p2160
sVAnthrax
p2161
V3JysSUOyfVs1UQ0UaESheP
p2162
sVTravie McCoy
p2163
V7o9Nl7K1Al6NNAHX6jn6iG
p2164
sVMelanie Fiona
p2165
V4O2YL4ygn6eTBC0w1hyWUM
p2166
sVLifehouse
p2167
V5PokPZn11xzZXyXSfnvIM3
p2168
sVMarilyn Manson
p2169
V2VYQTNDsvvKN9wmU5W7xpj
p2170
sVBroken Social Scene
p2171
V7lOJ7WXyopaxri0dbOiZkd
p2172
sVLandon Pigg
p2173
V1whjlG0NSaQytgDIWz10GS
p2174
sVSheppard
p2175
V6VxCmtR7S3yz4vnzsJqhSV
p2176
sVSoilwork
p2177
V7wqP36o9lqWteOCxBnXlwx
p2178
sVRaheem DeVaughn
p2179
V59NO6KX7wQCG7jGdtH1NtL
p2180
sVLive
p2181
V6eoJpTIlcuxJNjV5fDzDJH
p2182
sVPanic! At The Disco
p2183
V20JZFwl6HVl6yg8a4H3ZqK
p2184
sVEsperanza Spalding
p2185
V5bepW5vcdRzheNc0F8lHJ5
p2186
sVMali Music
p2187
V4S4kD5NBlgaq4YLBQSEMyY
p2188
sVGhostland Observatory
p2189
V2waNUwuthEgcBTFvYo26vo
p2190
sVStone Temple Pilots With Chester Bennington
p2191
V79Eeda5SnMdJpuURWk2D4L
p2192
sVUGK
p2193
V6ZhjJOJXXwnPS8PrXdmjLw
p2194
sVSchool Gyrls
p2195
V4zfTcqK4VudzZgd0T8g1Fi
p2196
sVKem
p2197
V1f2e3RQf7LHOum8NU61q0R
p2198
sVTwin Forks
p2199
V6GwNGuDRNbx5XwoHQA3QiD
p2200
sVKendrick Lamar
p2201
V2YZyLoL8N0Wb9xBt1NhZWg
p2202
sVWillie Nile
p2203
V42chtGdwnAdG2TECndse7J
p2204
sVKelis
p2205
V0IF46mUS8NXjgHabxk2MCM
p2206
sVPusha T
p2207
V0ONHkAv9pCAFxb0zJwDNTy
p2208
sVUncle Kracker
p2209
V2DnqqkzzDKm3vAoyHtn8So
p2210
sVJourney
p2211
V0rvjqX7ttXeg3mTy8Xscbt
p2212
sVJoe
p2213
V3zTOe1BtyTkwNvYZOxXktX
p2214
sVPink Martini & The Von Trapps
p2215
V5UGcZw5Un4d4risoqOMCy2
p2216
sVEnter Shikari
p2217
V31jvzuB4ikftPQZJwrYfCF
p2218
sVLincoln Brewster
p2219
V1aoy0R8uP3x33eqKZOLpN1
p2220
sVGateway Worship
p2221
V2b6REyd5UBBp4ZPDhZ2TNB
p2222
sVBand Of Skulls
p2223
V4ddt8PPvmWrI9mJQy1VrIG
p2224
sVEd Kowalczyk
p2225
V6GbkoBVyim0Y2EF1zj7oPO
p2226
sVPhonte
p2227
V5SyCTZ8X8YQCI0J1VRp4iC
p2228
sVGodspeed You! Black Emperor
p2229
V4svpOyfmQKuWpHLjgy4cdK
p2230
sVThe Priests
p2231
V4r4Gk6oEMIz28ubBaE9vZX
p2232
sVKids Choir
p2233
V2rj7Su1MsQ6zRbSHnYqcJb
p2234
sVCorey Smith
p2235
V2Da6v0shOpKrOG07ZxonXo
p2236
sVLouie DeVito
p2237
V2CubV3xWDcxDXPh4DeBoJP
p2238
sVISIS
p2239
V2vsXeWGC8rILp3rpSN2Fyk
p2240
sVThe Afghan Whigs
p2241
V7IDrRpDz0cOuUVC32c8PKD
p2242
sVGrouplove
p2243
V3kVUvbeRdcrqQ3oHk5hPdx
p2244
sVKarmin
p2245
V4M0DLz8te9Q1lNIXBBwvfG
p2246
sVRun The Jewels
p2247
V4RnBFZRiMLRyZy0AzzTg2C
p2248
sVKavinsky
p2249
V0UF7XLthtbSF2Eur7559oV
p2250
sVRay Price
p2251
V5sAg1HZePcFfhrs0G8A8OP
p2252
sVAshley Monroe
p2253
V37BiX28I6pF104F92U1hDP
p2254
sVMat Zo
p2255
V2n7USVO8fO8FF8zq4kG2N1
p2256
sVModern Baseball
p2257
V1HxXNvsraqrsgfmju1yKk8
p2258
sVBrutha
p2259
V0tVDUdGcQMfjFSJRrdnQAM
p2260
sVJagged Edge
p2261
V7Aq8lpLMSt1Zxu56pe9bmp
p2262
sVBeach House
p2263
V56ZTgzPBDge0OvCGgMO3OY
p2264
sVThe Lacs
p2265
V23OFz99wX0NDBBwrxthLWU
p2266
sV...And You Will Know Us By The Trail Of Dead
p2267
V6wBUn8gMP85n8dPu6LoUcF
p2268
sVThe Aquabats!
p2269
V0WgiEOrXlaXJGHKhkd9s4s
p2270
sVCosculluela
p2271
V00me4Ke1LsvMxt5kydlMyU
p2272
sVLess Than Jake
p2273
V20oQv3LStCKCjI9oQ0JNha
p2274
sVSteve Vai
p2275
V32Jb1X3wSmmoHj2epZReZA
p2276
sVNatalie Maines
p2277
V2wYbBxRMYtoM7L8zNSXv0J
p2278
sVSammy Adams
p2279
V1S9WGrK7SZfXXQtHBYzDle
p2280
sVWilliam Murphy
p2281
V1FQJqgKQDNLWfeLBQoQLmD
p2282
sVBlanca
p2283
V0GMSpOzEVXA4kboHiyvddO
p2284
sVOriginal London Cast Recording
p2285
V4tzvEGrojuQo8GB0aGMN1i
p2286
sVDavid Phelps
p2287
V1R486Y8DuEKEH01hypvW1B
p2288
sVHome Free
p2289
V2MSlGNpwXDScUdspOK6TS7
p2290
sVKat Dahlia
p2291
V1peH5tSqnYm8W6Bo3I5egE
p2292
sVNellie McKay
p2293
V1GFVkK9DUecapOZv2HzpiN
p2294
sVStars
p2295
V2EO56JK4txid1Pss9GVbOL
p2296
sVCitizen
p2297
V0znuUIjvP0LXEslfaq0Nor
p2298
sVTwin Shadow
p2299
V6fLrPFLWLSCrp7gcTZXcKb
p2300
sVDeltron 3030
p2301
V2efzHZrUGhawnSOTpyAHOQ
p2302
sVThe Chemical Brothers
p2303
V1GhPHrq36VKCY3ucVaZCfo
p2304
sVJohn Denver
p2305
V7EK1bQADBoqbYXnT4Cqv9w
p2306
sVBury Your Dead
p2307
V2cGTjGiqVo9E2NQIz3lP9D
p2308
sVExplosions In The Sky & David Wingo
p2309
V6X00fNAOqTGS4cWij2nMOf
p2310
sVRobin Schulz
p2311
V3t5xRXzsuZmMDkQzgOX35S
p2312
sVFreelance Whales
p2313
V7ucqItQmz1PCNHBFSbr0ki
p2314
sVAndy Williams
p2315
V4sj6D0zlMOl25nprDJBiU9
p2316
sVChris Cagle
p2317
V1zhIzONVRlTfD1VQRauHMl
p2318
sVElton John
p2319
V3PhoLpVuITZKcymswpck5b
p2320
sVDavid Byrne & St. Vincent
p2321
V1ZQawvHoU6kmWD6bzNnyyN
p2322
sVJoshua Bell
p2323
V3Ka1nDpDzxDveEqUPzIeom
p2324
sVStryper
p2325
V6lE1ly8K8H7u8k2ej2plvv
p2326
sVParkway Drive
p2327
V159qqlGwzE04xyqpfAwRLo
p2328
sVRyan Beatty
p2329
V60NNvDqsif0u40CXMV6jDQ
p2330
sVKatherine Jenkins
p2331
V6dkXCmyrSrQteo0gwOGzFl
p2332
sVJosh Kaufman
p2333
V1rVN2nOV74weTglog9V0gk
p2334
sVObie Trice
p2335
V2XnnxQzxFZG8qEPjakokPM
p2336
sVDevo
p2337
V5fU9RmKNYkNWO16wqGehla
p2338
sVRedlight King
p2339
V6hha7AM7ao3kNpN0VwOXgD
p2340
sVThe Summer Set
p2341
V0pwyD6DhbFWn8uVSz2Fr0w
p2342
sVEl Tigrillo Palma
p2343
V2usAJ9Mtrw570XlQ5MHJek
p2344
sVThe Little Willies
p2345
V4MWopTgyvixq0tNiFrVg0l
p2346
sVMichael Kiwanuka
p2347
V0bzfPKdbXL5ezYW2z3UGQj
p2348
sVA Thousand Horses
p2349
V55RI2GNCfyXr0f14uIdhwd
p2350
sVStatik Selektah
p2351
V5v0XTlB9FqNvfBfnw8n5b0
p2352
sVblessthefall
p2353
V7t2C8WwLyKUKRe0LVh8zl9
p2354
sVDeWayne Woods & When Singers Meet
p2355
V5h2bfWdmPeSSyOlvD93E8p
p2356
sVSnoop Dogg
p2357
V7hJcb9fa4alzcOq3EaNPoG
p2358
sVAtmosphere
p2359
V1GAS0rb4L8VTPvizAx2O9J
p2360
sVPantera
p2361
V14pVkFUHDL207LzLHtSA18
p2362
sVJim James
p2363
V1MhtYlJvUqfd2EgHSQTGK4
p2364
sVJuanita Bynum
p2365
V7s6c1gQXQCakbFxmgKAQDV
p2366
sVBoondox
p2367
V5z2pNh5Q7EUb7JrE81ofhW
p2368
sVTinted Windows
p2369
V5ctgKd8fwNFHpT6EIiXHT1
p2370
sVGod Forbid
p2371
V2OgQ0tvf2ldbdlm8sXyx3M
p2372
sVNicholas David
p2373
V2r7f7tP46hkr4U6nMpzzQx
p2374
sVKate Bush
p2375
V1aSxMhuvixZ8h9dK9jIDwL
p2376
sVJeff Dunham
p2377
V6LQTcsnz73GAgqVfdSx09o
p2378
sVBrooke Hyland
p2379
V3WRuMPUdiAxZzxnltMgh0U
p2380
sVThe Ting Tings
p2381
V2wvUfjKGoXvcnDHq7GgMOa
p2382
sVTasha Cobbs
p2383
V7N026dv4AShbedLUEwAQkN
p2384
sVSaigon
p2385
V0mTfntDCCWRozUnyxpGf6E
p2386
sVMorgan Page
p2387
V1N9n8MSxrr4Emhb566493b
p2388
sVHardwell
p2389
V6BrvowZBreEkXzJQMpL174
p2390
sVThe Heavy
p2391
V0bZCak2tcRMY1dzEIuwF42
p2392
sVTy Segall
p2393
V58XGUNsRNu3cVOIOYk5chx
p2394
sVBeth Orton
p2395
V6cLEWhEKQl6nAvgr60M7zC
p2396
sVZendaya
p2397
V6sCbFbEjbYepqswM1vWjjs
p2398
sVKehlani
p2399
V0cGUm45nv7Z6M6qdXYQGTX
p2400
sVTyler Carter
p2401
V4VCAHkdzvJBHJAcPyvWY5s
p2402
sVBritney Spears
p2403
V26dSoYclwsYLMAKD3tpOr4
p2404
sVCyndi Lauper
p2405
V2BTZIqw0ntH9MvilQ3ewNY
p2406
sVAlice Cooper
p2407
V3EhbVgyfGd7HkpsagwL9GS
p2408
sVG Unit
p2409
V64rhgk7CpsyLk9NvMtUMYH
p2410
sVPaper Tongues
p2411
V2TwquBGFuPq6ZtxEqKhDL2
p2412
sVChildren Of Bodom
p2413
V1xUhNgw4eJDZfvumIpcz1B
p2414
sV12 Stones
p2415
V0DrXhci3WAyo0WJv1RBOG6
p2416
sVKeyshia Cole
p2417
V1vfezMIyCr4XUdYRaKIKi3
p2418
sVWatain
p2419
V4OpHsZuhfJMU9PZ3zkyUQX
p2420
sVBun-B
p2421
V1r7YNXURZJYtApBUcZg2h4
p2422
sVAnita Wilson
p2423
V4rEGEwaOU6Mtdj4ylW0fjS
p2424
sVTGT
p2425
V1lEXbUjKjHQ7uc9jFfEViJ
p2426
sVFKA twigs
p2427
V6nB0iY1cjSY1KyhYyuIIKH
p2428
sVRefused
p2429
V5sdxGvwxI1TkTA6Pu2jnTb
p2430
sVPrince Royce
p2431
V3MHaV05u0io8fQbZ2XPtlC
p2432
sVDanielle Bradbery
p2433
V5iqStkZi6QmG8sgQZQrfGN
p2434
sVJoe Bonamassa
p2435
V2SNzxY1OsSCHBLVi77mpPQ
p2436
sVRachel Platten
p2437
V3QLIkT4rD2FMusaqmkepbq
p2438
sVCorrosion Of Conformity
p2439
V1BBIIH0h76KN8gYeXFcPjR
p2440
sVTy Dolla $ign
p2441
V7c0XG5cIJTrrAgEC3ULPiq
p2442
sVNoel Gallagher's High Flying Birds
p2443
V7sjttK1WcZeyLPn3IsQ62L
p2444
sVThe Crabb Family
p2445
V2Fg4p216PH5hvVZWbWCguK
p2446
sVJohn St. John
p2447
V3s9VNEIEAoHNUF9UFMMwNG
p2448
sVDido
p2449
V2mpeljBig2IXLXRAFO9AAs
p2450
sVPaul Thorn
p2451
V20GkA5r78JwVBtZ4tNtriJ
p2452
sVTrinidad James
p2453
V0I5HubncQ8E1MFZOlPDY4J
p2454
sVThe Willis Clan
p2455
V5JeJEFhZKKtPgrrbfih6rY
p2456
sVDeluge
p2457
V2DP3fuRkm9Tm6iIPqrKrfg
p2458
sVLCD Soundsystem
p2459
V066X20Nz7iquqkkCW6Jxy6
p2460
sVMisfits
p2461
V1cXi8ALPQCBHZbf0EgP4Ey
p2462
sVJulian Casablancas
p2463
V1rAv1GhTQ2rmG94p9lU3rB
p2464
sVGreensky Bluegrass
p2465
V33bzrYoIWLx5uox3y0VtHn
p2466
sVYou Blew It!
p2467
V3jvWpZJpokYCoT0QV4OJg0
p2468
sVMarie Osmond
p2469
V3ijY78RxOagYo8FOgSEkWj
p2470
sVKeane
p2471
V53A0W3U0s8diEn9RhXQhVz
p2472
sVMartha Munizzi
p2473
V0wiD0pcfAS8545DNHBcriR
p2474
sVCher
p2475
V72OaDtakiy6yFqkt4TsiFt
p2476
sVTegan And Sara
p2477
V5e1BZulIiYWPRm8yogwUYH
p2478
sVThe Magnetic Fields
p2479
V6RWjTQqILL7a1tQ0VapyLK
p2480
sVThe Departed
p2481
V2sAFSK5h8asbw3e451vV0G
p2482
sVAshanti
p2483
V5rkVyNGXEgeUqKkB5ccK83
p2484
sVNeil Diamond
p2485
V7mEIug7XUlQHikrFxjTWes
p2486
sVJ Moss
p2487
V6sj6FGLblnVfktDZPaydWP
p2488
sVBen Harper
p2489
V45lorWzrKLxfKlWpV7r9CN
p2490
sVDar Williams
p2491
V4Aarr7f0itQ2WFmmiPcriK
p2492
sVMaylene And The Sons Of Disaster
p2493
V5qSQDLG1CdotFh8eWhm7yT
p2494
sVKid Cudi
p2495
V0fA0VVWsXO9YnASrzqfmYu
p2496
sVDiggy
p2497
V2LuUALONla8DJRSCiGONBp
p2498
sVGlen Hansard
p2499
V3Caot8EtHX6wLpNF2wRzS0
p2500
sVNicki Minaj
p2501
V0hCNtLu0JehylgoiP8L4Gh
p2502
sVCarly Rae Jepsen
p2503
V6sFIWsNpZYqfjUpaCgueju
p2504
sVJames Taylor
p2505
V0vn7UBvSQECKJm2817Yf1P
p2506
sVAt The Gates
p2507
V6YXarbjg36ODFPez0PnOlD
p2508
sVKelly Clarkson
p2509
V3BmGtnKgCSGYIUhmivXKWX
p2510
sVBoz Scaggs
p2511
V46njgd2Rq9tZc4ZjeQMgbh
p2512
sVAmanda Palmer & The Grand Theft Orchestra
p2513
V6X7xyfHZD8DMHHJd4FeRsh
p2514
sVTaylor Hicks
p2515
V3E3tW69eMfAffLGgsmP3GG
p2516
sVKate Earl
p2517
V51P4Dbg6whYIZ0WexxVUqX
p2518
sVKenny Lattimore
p2519
V1UjTUqWfGkof4L5HO5NmzP
p2520
sVScHoolboy Q
p2521
V5IcR3N7QB1j6KBL8eImZ8m
p2522
sVGeorge Harrison
p2523
V7FIoB5PHdrMZVC3q2HE5MS
p2524
sVKreayshawn
p2525
V51xJF4OqJPHWop1fv0VVyd
p2526
sVMims
p2527
V76RrKpsvOmSKG8CIjROdSG
p2528
sVAs Cities Burn
p2529
V7eJA8CZoXCETi9axIfBFGT
p2530
sVSpinal Tap
p2531
V65X3sG8LVBQN5033RqB6qn
p2532
sVSarah Buxton
p2533
V2xTlb6eueddQmWsxImpDbP
p2534
sV8Ball & MJG
p2535
V7iUhmKPNkkPPS6FCQxqtNq
p2536
sVDominic Balli
p2537
V2QCtK2hdxxcU1BU5Npa8Zu
p2538
sVBackstreet Boys
p2539
V5rSXSAkZ67PYJSvpUpkOr7
p2540
sVDustin Lynch
p2541
V1dID9zgn0OV0Y8ud7Mh2tS
p2542
sVSt. Lucia
p2543
V5WId4o5jdGVhptNU0uqKxu
p2544
sVAlicia Villarreal
p2545
V6Hf2g14O2TP25JUNZuvIgn
p2546
sVMadvillain
p2547
V2aoFQUeHD1U7pL098lRsDU
p2548
sVRhiannon Giddens
p2549
V1EI0NtLHoh9KBziYCeN1vM
p2550
sVZiggy Marley
p2551
V0o0rlxlC3ApLWsxFkUjMXc
p2552
sVMaranatha! Gospel
p2553
V1CGxlU3N3Nk3uCEoYhj9oX
p2554
sVCasey Veggies
p2555
V0uFc6StTmJBvdHPZFDkdJy
p2556
sVStars In Stereo
p2557
V6pxX8ODU4RlnXmcyjPIPcp
p2558
sVBobby Jones
p2559
V4tTqlgzFhbRqQo3w7tq1mC
p2560
sVChairlift
p2561
V7hAolICGSgXJuM6DUpK5rp
p2562
sVStacy Barthe
p2563
V0yq6uHIfFks9yOURUuCITV
p2564
sVBethel Music
p2565
V26T4yOaOoFJvUvxR87Y9HO
p2566
sVLianne La Havas
p2567
V2RP4pPHTXlQpDnO9LvR7Yt
p2568
sVPowerman 5000
p2569
V5imUS9dQyCbAjUEJJ9QyWC
p2570
sVMichelle Chamuel
p2571
V6AXr7aXrJYFI3XjslAWDPY
p2572
sVCorinne Bailey Rae
p2573
V29WzbAQtDnBJF09es0uddn
p2574
sVIsles & Glaciers
p2575
V6dHr8Y0nPrnHiBOuJzuu8F
p2576
sVKeb' Mo'
p2577
V6iDaoPZVgxrTkndDCisX8F
p2578
sVOf Monsters And Men
p2579
V4dwdTW1Lfiq0cM8nBAqIIz
p2580
sVKate Voegele
p2581
V7whckrkkTMEuvqfaNfMs7S
p2582
sVKevin Costner & Modern West
p2583
V3UKhW4CbRv9wZvfT5oodNH
p2584
sVBerner
p2585
V2lrtGWxNXWjd0JzDLKXubI
p2586
sVClairy Browne & The Bangin' Rackettes
p2587
V4wD2i7Mq4ue63myHCX8OPf
p2588
sVA Rocket To The Moon
p2589
V1NU9Em6e8dDo36Js6nEo3t
p2590
sVLyfe Jennings
p2591
V33C3ByGk9NCrjTIXr6npqf
p2592
sVMidlake
p2593
V4YsP5zmteLQ7etNjHAOu30
p2594
sVPropagandhi
p2595
V7qpy5KY3DVrezixTl6mziA
p2596
sVChristina Grimmie
p2597
V0Cav8jyZKAHMFbAusOmjku
p2598
sVLittle Angels
p2599
V4TRBBxb2qDow4v5lmGtXIU
p2600
sVPat Benatar
p2601
V43mhFhQ4JAknA7Ik1bOZuV
p2602
sVThe String Cheese Incident
p2603
V7N3JfLDzzjXdPbsyco7X0l
p2604
sVSantana
p2605
V6GI52t8N5F02MxU0g5U69P
p2606
sVVarious Artists
p2607
V0LyfQWJT6nXafLPZqxe9Of
p2608
sVAmber Bullock
p2609
V2UM3duwCMBDd8EykmBNOjw
p2610
sVLuis Coronel
p2611
V5DlVR9AUTrBgXWN4wiy5aL
p2612
sVBlack Country Communion
p2613
V7by60V2ChbeiVhwXK5Jk6l
p2614
sVRittz
p2615
V5sRhscbWRXFbjXtSZyfaWY
p2616
sVPoint Of Grace
p2617
V5y1gFSVnE4DGxUxHeKrGk6
p2618
sVAction Item
p2619
V3JST7Now2kQfkzE14z3tCi
p2620
sVDeitrick Haddon's LXW (League Of Xtraordinary Worshippers)
p2621
V2HEdStlITmYLFo1LOdtlUW
p2622
sVBilly Idol
p2623
V7lzordPuZEXxwt9aoVZYmG
p2624
sVThe Bouncing Souls
p2625
V3mvTAjG7rcyk7DQzLwauzV
p2626
sVPaul McCartney And Wings
p2627
V6wQwud8LsyCqoeKbl7Ro98
p2628
sVOur Lady Peace
p2629
V1lqW59DUEKqvcHc8mVWBtH
p2630
sVForever Came Calling
p2631
V3LqgxOMfONGBf034jekl9H
p2632
sVSharon Van Etten
p2633
V2wJ4vsxWd7df7dRU4KcoDe
p2634
sVPaul Banks
p2635
V6h7Y3QR7IjzAD05Qw5QYO4
p2636
sVAdelitas Way
p2637
V1ZjAT2nTrzDIXFfsQ2hWJk
p2638
sVof Montreal
p2639
V5xeBMeW0YzWIXSVzAxhM8O
p2640
sVThrowdown
p2641
V18jFO6Z2Bpdv5jp8mXfChN
p2642
sVAaron Neville
p2643
V57ALvbCBaCkNlgTOSiUPdT
p2644
sVAndrew Peterson
p2645
V1HYNk3B7EsRPIqAOACgjK1
p2646
sVPixies
p2647
V6zvul52xwTWzilBZl6BUbT
p2648
sVVertical Horizon
p2649
V6Hizgjo92FnMp8wGaRUNTn
p2650
sVBluetree
p2651
V6wxsb5XfAAM62aseGtdD18
p2652
sVShabazz Palaces
p2653
V6C403AR4y6PjN0xNNGh42m
p2654
sVSabrina Carpenter
p2655
V74KM79TiuVKeVCqs8QtB0B
p2656
sVAerosmith
p2657
V7Ey4PD4MYsKc5I2dolUwbH
p2658
sVEddie Vedder
p2659
V0mXTJETA4XUa12MmmXxZJh
p2660
sVState Radio
p2661
V6eaKsv68njcrz5OjeQor5L
p2662
sVRoy Orbison
p2663
V0JDkhL4rjiPNEp92jAgJnS
p2664
sVSisyphus
p2665
V6WW7gF6rdDASW1brWmFUzM
p2666
sVGregory Porter
p2667
V06nevPmNVfWUXyZkccahL8
p2668
sVB.o.B
p2669
V5ndkK3dpZLKtBklKjxNQwT
p2670
sVSuicidal Tendencies
p2671
V3WPKDlucMsXH6FC1XaclZC
p2672
sVZero 7
p2673
V14H7ag1wpQOsPPQJOD6Dqr
p2674
sVThe Fray
p2675
V0zOcE3mg9nS6l3yxt1Y0bK
p2676
sVChristina Aguilera
p2677
V1l7ZsJRRS8wlW3WfJfPfNS
p2678
sVBurl Ives
p2679
V0MHgLfmQdutffmvWe5XBTN
p2680
sVCristian Castro
p2681
V2AZOALDIBORfbzKTuliwdJ
p2682
sVT.I.
p2683
V4OBJLual30L7gRl5UkeRcT
p2684
sVAngie Stone
p2685
V2hWr3AjjKOCVmWcwvuT4uM
p2686
sVMachine Head
p2687
V0lVlNsuGaOr9vMHCZIAKMt
p2688
sVPlan B
p2689
V2jSGzJw0ebJLu7OLVSOcBP
p2690
sVNe-Yo
p2691
V21E3waRsmPlU7jZsS13rcj
p2692
sVSage The Gemini
p2693
V6d47Z08T4snK50HgTEHo5Z
p2694
sVJess Glynne
p2695
V4ScCswdRlyA23odg9thgIO
p2696
sVWiz Khalifa
p2697
V137W8MRPWKqSmrBGDBFSop
p2698
sVMikal Cronin
p2699
V6QobJ3vnalBTlsdOrvQTIt
p2700
sVJudy Collins
p2701
V5yzE49FicYiSxN61oaxkNn
p2702
sVSir Sly
p2703
V3DFoVPonoAAt4EZ1FEI8ue
p2704
sVMack Wilds
p2705
V5BO8aIDUyNtvnq98qMIs85
p2706
sVMiggs
p2707
V6P0t15ujRivxcjfJpV5yDj
p2708
sVGranger Smith
p2709
V4sTFGCigAQIUiEy8wSSQNF
p2710
sVNine Lashes
p2711
V6L5kgEyFIlckHbMdRM2KXQ
p2712
sVUmphrey's McGee
p2713
V7mQilAy42MqNPqUFqK4Z0o
p2714
sVWe Came As Romans
p2715
V6qO6LhD6FuXK5e2PtfAIMz
p2716
sVAce Hood
p2717
V31HjiqargV4NAw4GZqUale
p2718
sVFaith Evans
p2719
V5NDMothbpdpq2xHqSjrrWn
p2720
sVBilly Joel
p2721
V6zFYqv1mOsgBRQbae3JJ9e
p2722
sVSherwood
p2723
V0eW6yRE8ePadhUe1Numam9
p2724
sVScar The Martyr
p2725
V1gz9Dd0N7oCymbjVePlxbq
p2726
sVBruce Springsteen
p2727
V3eqjTLE0HfPfh78zjh6TqT
p2728
sVMarques Houston
p2729
V1goOx6gnQdUllLfSMsL4Rt
p2730
sVFrank Foster
p2731
V77GSkIzDaduRlIbNjlvefc
p2732
sVWillie Nelson
p2733
V5W5bDNCqJ1jbCgTxDD0Cb3
p2734
sVEarth, Wind & Fire
p2735
V4QQgXkCYTt3BlENzhyNETg
p2736
sVBo Bice
p2737
V2Q1FIPavG8WZF33kqIP3sy
p2738
sVPepper
p2739
V1YK8JdPbiaMSnf4hrlBkGT
p2740
sVJustin Townes Earle
p2741
V3znXuXT3xkCtjgOxXBBVnq
p2742
sVDeath From Above 1979
p2743
V18H0sAptzdwid08XGg1Lcj
p2744
sVYo-Yo Ma
p2745
V5Dl3HXZjG6ZOWT5cV375lk
p2746
sVThe Lox
p2747
V0A7g2YbCA9FlyZvAG6VmKP
p2748
sVThe Dirty Guv'nahs
p2749
V4h3cy2TQzlb5Aklcr2CghR
p2750
sVDayshell
p2751
V4yextvMjXxQXzyQkyS1jYX
p2752
sVHoundmouth
p2753
V7EGwUS3c5dXduO4sMyLWC5
p2754
sVMiles Davis
p2755
V0kbYTNQb4Pb1rPbbaF0pT4
p2756
sVScotty McCreery
p2757
V6ZV6lGY0prbqpTD0Md8i29
p2758
sVTyphoon
p2759
V6p6WlxIkeWH8yOYvciFfVl
p2760
sVPaulina Rubio
p2761
V1d6dwipPrsFSJVmFTTdFSS
p2762
sVBlack Milk
p2763
V77zgRkcehIGCAtROXkXkb3
p2764
sVThe Raveonettes
p2765
V3LTXHU3DhiYzGIgF2PP8Q8
p2766
sVAlesana
p2767
V1fnDlUNi67FQtHHqBl4Yfg
p2768
sVHeather Headley
p2769
V2xDc4cU0Rj6YG8SrmAHIy0
p2770
sVJonathan Nelson
p2771
V4oI0W9neUi7nvxcQKDY5Xa
p2772
sVLos Lobos
p2773
V6OWapcJm9xd55ci9CYbAuT
p2774
sVAer
p2775
V25hbSOMmbhgqvonjC876UJ
p2776
sVBarry Manilow
p2777
V3alW3LYQS8K29z8C8NSLIX
p2778
sVCold War Kids
p2779
V6VDdCwrBM4qQaGxoAyxyJC
p2780
sVFrank Ocean
p2781
V2h93pZq0e7k5yf4dywlkpM
p2782
sVKiller Mike
p2783
V2N4EYkIlG1kv25g6Wv8LGI
p2784
sVOur Last Night
p2785
V00YTqRClk82aMchQQpYMd5
p2786
sVJulian Plenti
p2787
V4RlEYUI2Q5gKfDn1VwKQpK
p2788
sVSimon & Garfunkel
p2789
V70cRZdQywnSFp9pnc2WTCE
p2790
sVCitizen Cope
p2791
V7enBrBojgBJuPPdqTq4Z5F
p2792
sVSanctus Real
p2793
V6QgOGgahvXBHEEzpjbDsOj
p2794
sVPolyphia
p2795
V4vGrte8FDu062Ntj0RsPiZ
p2796
sVRae Sremmurd
p2797
V7iZtZyCzp3LItcw1wtPI3D
p2798
sVCeltic Woman
p2799
V6NWtt9pNOL2Gx7kBykdE5x
p2800
sVCandlebox
p2801
V3R6c2tWDBeYB1GncjLMn9n
p2802
sVTesla
p2803
V0dgnITyIAN4NrmUVisvxHU
p2804
sVwill.i.am
p2805
V085pc2PYOi8bGKj0PNjekA
p2806
sVSia
p2807
V5WUlDfRSoLAfcVSX1WnrxN
p2808
sVConverge
p2809
V7kHzfxMLtVHHb523s43rY1
p2810
sVGojira
p2811
V0GDGKpJFhVpcjIGF8N6Ewt
p2812
sVThe Grascals
p2813
V7si9bAnJcqPoR30spNu9tm
p2814
sVArcade Fire
p2815
V3kjuyTCjPG1WMFCiyc5IuB
p2816
sVBlake Lewis
p2817
V4H6tLRh1nuIuVxHtXo68ZE
p2818
sVFoxy Shazam
p2819
V5qRXoCC1CDTMTli9gplUvk
p2820
sVJasta
p2821
V03248d0xYQltNDAF2XongP
p2822
sVDream Theater
p2823
V2aaLAng2L2aWD2FClzwiep
p2824
sVFair To Midland
p2825
V1GfzxrTlFX1DmRSVqMUvaD
p2826
sVAmon Amarth
p2827
V3pulcT2wt7FEG10lQlqDJL
p2828
sVVan Halen
p2829
V2cnMpRsOVqtPMfq7YiFE6K
p2830
sVBig Smo
p2831
V7eRXja3QOjiMWRgkd5dYwo
p2832
sVTennis
p2833
V1ybAN3utgdoUL1MUCtH4QM
p2834
sVThe Growlers
p2835
V2RhgnQNC74QoBlaUvT4MEe
p2836
sVTrailer Choir
p2837
V0FSuo59OpaJZKLwp3lgt4D
p2838
sVLee Greenwood
p2839
V3g229vTyhsdwm9SO2p1FPL
p2840
sVBlind Pilot
p2841
V6qiGjRyN7TJ1GA2nXF68Hi
p2842
sVDr. Dre
p2843
V6DPYiyq5kWVQS4RGwxzPC7
p2844
sVThe Devil Makes Three
p2845
V63knPlGzLHTNDf1J78Fvte
p2846
sVTorche
p2847
V4PxqJghOAEvatt0scJvili
p2848
sVTokyo Police Club
p2849
V3wyfo3svXNWnszGAEVey11
p2850
sVJohn Mayer
p2851
V0hEurMDQu99nJRq8pTxO14
p2852
sVFather John Misty
p2853
V2kGBy2WHvF0VdZyqiVCkDT
p2854
sVFourplay
p2855
V3PcMolaGsh2nryvBR2sQOS
p2856
sVDash Berlin
p2857
V1xT5p0VBpnZDrvVSjX9sri
p2858
sVLisa Hannigan
p2859
V0z7Yuv7DuDQ5SaVn4VSlLt
p2860
sVFrank Turner
p2861
V27M9shmwhIjRo7WntpT9Rp
p2862
sVHighlands Worship
p2863
V48ubKBTTmlA82dffZ223In
p2864
sVLucero
p2865
V1MspPfENB9nzFGaagXmF7R
p2866
sVBuddy & Julie Miller
p2867
V61YXt5O4gENijzfR9cjjSV
p2868
sVTodd Terje
p2869
V49gaZqfow2v8EEQmjGyEIw
p2870
sVAustrian Death Machine
p2871
V0oxUux1OSwZpIpSK0JbqSS
p2872
sVBanks
p2873
V2xe8IXgCTpwHE3eA9hTs4n
p2874
sVPeter Frampton
p2875
V0543y7yrvny4KymoaneT4W
p2876
sVCat Power
p2877
V6G7OerKc3eBO9sVkRNopFC
p2878
sVBrendan James
p2879
V2aIPQyKrN3oVev1kHudiai
p2880
sVKaskade
p2881
V6TQj5BFPooTa08A7pk8AQ1
p2882
sVDeath Angel
p2883
V6KVc8Llznru8n9LVCYe9dz
p2884
sVBrian Culbertson
p2885
V4WQ8grqJHB2Y0IDjpro1FE
p2886
sVRusko
p2887
V4BTcOR2hEQZQQL5AMo5u10
p2888
sVEdens Edge
p2889
V6KAwb5D0KanI575XxOucMt
p2890
sVBoosie BadAzz
p2891
V6z7xFFHxYkE9t8bwIF0Bvg
p2892
sVDragonForce
p2893
V2pH3wEn4eYlMMIIQyKPbVR
p2894
sVBlaqk Audio
p2895
V2pumHFoeb64XWvvGoGqsIr
p2896
sVThe Doors
p2897
V22WZ7M8sxp5THdruNY3gXt
p2898
sVBullet For My Valentine
p2899
V7iWiAD5LLKyiox2grgfmUT
p2900
sVTrin-i-tee 5:7
p2901
V6XFgX9kLg3pUAkLY0byY2I
p2902
sVJason Aldean
p2903
V3FfvYsEGaIb52QPXhg4DcH
p2904
sVHundredth
p2905
V2rtsR8zno5naTxY0iJr7M0
p2906
sVSaving Abel
p2907
V2AVVj8ezW2mJ0v8u7XydiF
p2908
sVEmblem3
p2909
V1md9aYaJ6Qt1FHypXICB5V
p2910
sVLauren Daigle
p2911
V40LHVA5BTQp9RxHOQ9JPYj
p2912
sVPink
p2913
V5yZIMouFE8eYDV30tJP4Uk
p2914
sVFoster The People
p2915
V7gP3bB2nilZXLfPHJhMdvc
p2916
sVRevocation
p2917
V4I9kzJ3Ew3qPoN66UPJUl3
p2918
sVMike Stud
p2919
V5G9kmDLg3OeUyj8KVBLzbu
p2920
sVBow Wow
p2921
V7352aRY2mqSxBZwzUb6LmA
p2922
sVTravis Cottrell
p2923
V4q7PS6zi0CyrEo23orQCkW
p2924
sVThe New Pornographers
p2925
V4mO4aGO6u29UyR6XLZR9XW
p2926
sVEric Hutchinson
p2927
V39x8gyJjTHiBQklFgVJSV4
p2928
sVAlicia Keys
p2929
V3DiDSECUqqY1AuBP8qtaIa
p2930
sVJohnnyswim
p2931
V4igDSX1kgfWbVTDCywcBGm
p2932
sVD'Angelo And The Vanguard
p2933
V6Mcf9djkF10BzoZNU4kFXt
p2934
sVB.G.
p2935
V36HvjE9pV91jEjO1qBRidS
p2936
sVBen Howard
p2937
V5schNIzWdI9gJ1QRK8SBnc
p2938
sVLos Tigres del Norte
p2939
V3hYtANQYrE6pd2PbtEyTIy
p2940
sVNick Cave & The Bad Seeds
p2941
V4UXJsSlnKd7ltsrHebV79Q
p2942
sVPaul McCartney
p2943
V4STHEaNw4mPZ2tzheohgXB
p2944
sVTracy Lawrence
p2945
V2BQVRw9md4UKcGUrDXABCD
p2946
sVTravis Barker
p2947
V4exLIFE8sISLr28sqG1qNX
p2948
sVMiles Davis Quintet
p2949
V71Ur25Abq58vksqJINpGdx
p2950
sVCalvin Harris
p2951
V7CajNmpbOovFoOoasH2HaY
p2952
sVFIDLAR
p2953
V3P6duIn7oHeiBACZfYeNud
p2954
sVLuther Vandross
p2955
V19y5MFBH7gohEdGwKM7QsP
p2956
sVJeezy
p2957
V4yBK75WVCQXej1p04GWqxH
p2958
sVTokio Hotel
p2959
V46aNfN89JrOQTCy97GoCHa
p2960
sVDanny Gokey
p2961
V5Yu3b48Y29bZlI1cLPOZJz
p2962
sVPhantogram
p2963
V1l9d7B8W0IHy3LqWsxP2SH
p2964
sVHoodie Allen
p2965
V382aq8Pij5V2nE2JMHMoxl
p2966
sVWaka Flocka Flame
p2967
V6f4XkbvYlXMH0QgVRzW0sM
p2968
sVM. Ward
p2969
V6nXSnNEdLuKTzAQozRtqiI
p2970
sVShaggy
p2971
V5EvFsr3kj42KNv97ZEnqij
p2972
sVOtis Redding
p2973
V60df5JBRRPcnSpsIMxxwQm
p2974
sVAndrea Helms
p2975
V3ZMJ500wfchdPHHrycOAum
p2976
sVKodaline
p2977
V4BxCuXFJrSWGi1KHcVqaU4
p2978
sVThe Temptations
p2979
V3RwQ26hR2tJtA8F9p2n7jG
p2980
sVRuPaul
p2981
V2SdOKxC1sSxEyv8JYERaNe
p2982
sVNile
p2983
V3v3VSKylQE69ztn5TUVlFE
p2984
sVSunset Rubdown
p2985
V4kmq4NmMAD2EB24v6Il3qr
p2986
sVDJ Skribble
p2987
V43FhtYLLBM0mVHKwqBOgu7
p2988
sVMGMT
p2989
V0SwO7SWeDHJijQ3XNS7xEE
p2990
sVMorbid Angel
p2991
V35jmO5o3AhUV70kiR7u4Nw
p2992
sVRachael Yamagata
p2993
V7w0qj2HiAPIeUcoPogvOZ6
p2994
sVLenny Cooper
p2995
V4GhUchfx0YFPsDaXZRJp8v
p2996
sVDeath Grips
p2997
V5RADpgYLOuS2ZxDq7ggYYH
p2998
sVGrace Potter
p2999
V1PJVVIeS5Wu0wbZDhtC0Ht
p3000
sVSea Wolf
p3001
V3ZllGjNdP5pS8UFnT5Jj2x
p3002
sVSTRFKR
p3003
V2Tz1DTzVJ5Gyh8ZwVr6ekU
p3004
sVThe Black Crowes
p3005
V5krkohEVJYw0qoB5VWwxaC
p3006
sVEric Church
p3007
V2IvkS5MXK0vPGnwyJsrEyV
p3008
sVDark Lotus
p3009
V34pi7XANRzTkJ78RuTOLwa
p3010
sVErra
p3011
V2UoOdQyBGyzrEfxcY77ce0
p3012
sVLil Wayne
p3013
V55Aa2cqylxrFIXC767Z865
p3014
sVThe Chariot
p3015
V3JEDaDPsOev2axi1kVvnb3
p3016
sVRandom Axe
p3017
V3pBKouKb8w9CJN8rJV5PJI
p3018
sVDavid Archuleta
p3019
V2C9n4tQgNLhHPhSCmdsQnk
p3020
sVGloria Estefan
p3021
V5IFCkqu9J6xdWeYMk5I889
p3022
sVAmy Grant
p3023
V72Nhcx7prNk2ZCxhx0Y5es
p3024
sVLos Temerarios
p3025
V3YbOSxo85kla7RID8ugnW3
p3026
sVPeggy Lee
p3027
V602DnpaSXJB4b9DZrvxbDc
p3028
sVForeigner
p3029
V6IRouO5mvvfcyxtPDKMYFN
p3030
sVLaura Veirs
p3031
V0jkK3K1ATFFHofEWjd2i00
p3032
sVThe Budos Band
p3033
V5q4eLKmqFVP0xII8087PHz
p3034
sVTerror
p3035
V1GVRgPtEC6sZFqvItIk3eg
p3036
sVChris Cornell
p3037
V0XHiH53dHrvbwfjYM7en7I
p3038
sVTyga
p3039
V5LHRHt1k9lMyONurDHEdrp
p3040
sVBryan Adams
p3041
V3Z02hBLubJxuFJfhacLSDc
p3042
sVA Lot Like Birds
p3043
V4tGd3HHlV4RVOdlBc5LAW3
p3044
sVHow To Destroy Angels
p3045
V1yDbenrXWhaQij3SCpsXe7
p3046
sVNOFX
p3047
V4S2yOnmsWW97dT87yVoaSZ
p3048
sVTimes Of Grace
p3049
V0CfztphU9FWmAhGocFrrYC
p3050
sVWidespread Panic
p3051
V54SHZF2YS3W87xuJKSvOVf
p3052
sVLissie
p3053
V3j4FHbC5zwmYGJ7r0ZgaMt
p3054
sVMew
p3055
V6kDMoHTcBICPILP2aclPWZ
p3056
sVGhost Town
p3057
V6MM2Na1OX5kh9QjazXBeIN
p3058
sVNo Doubt
p3059
V0cQbJU1aAzvbEmTuljWLlF
p3060
sVJoe Satriani
p3061
V2yzxX2DI9LFK8VFTyW2zZ8
p3062
sVWashed Out
p3063
V5juOkIIy18sFw9L30syt1Z
p3064
sVThe Clarks
p3065
V2lAPrQNoGqedH9JVzOi5y0
p3066
sVVivian Green
p3067
V3t83f2J04dRWOpNBe9GTfs
p3068
sVLindsey Buckingham
p3069
V3Dzj993UEz8Z5ovxuirzFO
p3070
sVEvery Time I Die
p3071
V0o7WWONtleH6PWLn5GIoCM
p3072
sVKenny G
p3073
V6I3M904Y9IwgDjrQ9pANiB
p3074
sVElevation Worship
p3075
V3YCKuqpv9nCsIhJ2v8SMix
p3076
sVBIzzle
p3077
V0P8V2XSw1mIo8739T1qjzr
p3078
sVHard Working Americans
p3079
V5HFE1NUz1561kJM2lHI6AF
p3080
sVEd Sheeran
p3081
V6eUKZXaKkcviH0Ku9w2n3V
p3082
sVRickie Lee Jones
p3083
V0dYkMe3wK29DulSa0uR8Rq
p3084
sVHollywood Vampires
p3085
V3k4YA0uPsWc2PuOQlJNpdH
p3086
sVCaleb Johnson
p3087
V6PrHnMBRb8W0Uw4jMD5d8h
p3088
sVFleet Foxes
p3089
V4EVpmkEwrLYEg6jIsiPMIb
p3090
sVDirty Heads
p3091
V6GkJh85o22LfD2vgL9DP6f
p3092
sVTesseract
p3093
V23ytwhG1pzX6DIVWRWvW1r
p3094
sVDangerkids
p3095
V2DOUzKJkYjJAiLbKuy5nU6
p3096
sVLenka
p3097
V5g3uG8zZZANGT6YOssgjfC
p3098
sVNewsted
p3099
V4eDkaLQcam2cyul9Wjf1yX
p3100
sVMatisyahu
p3101
V5eyMzR1hYiEZtN2c9ly2kw
p3102
sVTransit
p3103
V1uQXG73H5lbcxVXcCHSjZ5
p3104
sVKina Grannis
p3105
V7h4j9YTJJuAHzLCc3KCvYu
p3106
sVWebbie
p3107
V6aIm51fHkokqlJn2vzNTH8
p3108
sVAphex Twin
p3109
V6kBDZFXuLrZgHnvmPu9NsG
p3110
sVSam Smith
p3111
V2wY79sveU1sp5g7SokKOiI
p3112
sVAs I Lay Dying
p3113
V2vd2HnNh4pdYa9gDVHFjEu
p3114
sVCam'ron & Vado
p3115
V21nzdR9NCwo7IcMIuYRH2C
p3116
sVDestroy Rebuild Until God Shows
p3117
V6XjXff8FNS5CqpF8dVAtoo
p3118
sVShakira
p3119
V0EmeFodog0BfCgMzAIvKQp
p3120
sVOpeth
p3121
V0ybFZ2Ab08V8hueghSXm6E
p3122
sVSleeping With Sirens
p3123
V3N8Hy6xQnQv1F1XCiyGQqA
p3124
sVCloud Nothings
p3125
V6rnbB5fuUuCSsspvFsxIpT
p3126
sV*NSYNC
p3127
V6Ff53KvcvAj5U7Z1vojB5o
p3128
sVCivil Twilight
p3129
V6i4aN0I3l7uldsLTjbZOF8
p3130
sVCrystal Castles
p3131
V7K3zpFXBvPcvzhj7zlGJdO
p3132
sVElvis Costello
p3133
V2BGRfQgtzikz1pzAD0kaEn
p3134
sVNew Medicine
p3135
V3driPpCh1JEUnPFKGyHXDr
p3136
sVEyehategod
p3137
V3BRjxpDVT56Y2G5dS3xYZS
p3138
sVToro y Moi
p3139
V6O4EGCCb6DoIiR6B1QCQgp
p3140
sVBone Thugs-N-Harmony
p3141
V5spEJXLwD1sKUdC2bnOHPg
p3142
sVBrooke Hogan
p3143
V2B4ZTS4hFT3IrUFVPHjEmL
p3144
sVRonnie Milsap
p3145
V6Sb8EHpZvyjSTT5KD9DjUZ
p3146
sVThe Faint
p3147
V4A1yfFuBmBOgzv4Oe3fFHk
p3148
sVFraming Hanley
p3149
V3niqfoc7C6lIeCNVz8iZYE
p3150
sVPaul Simon
p3151
V2CvCyf1gEVhI0mX6aFXmVI
p3152
sVAsleep At The Wheel
p3153
V54tWKkrjv4bQgKrQrNlecm
p3154
sVThe Cult
p3155
V49DW3KvkyjHO35mK1JnSyS
p3156
sVExodus
p3157
V76S65NHJHrNy4JTrXHP2BH
p3158
sVJohn Fogerty
p3159
V5ujCegv1BRbEPTCwQqFk6t
p3160
sVRegulo Caro
p3161
V0YRwUbRxrawmnBdixwJi5W
p3162
sVFear Factory
p3163
V74Hj7BmnUXyx2udrIEIKwX
p3164
sVNF
p3165
V6fOMl44jA4Sp5b9PpYCkzz
p3166
sVRay Charles
p3167
V1eYhYunlNJlDoQhtYBvPsi
p3168
sVFuturistic
p3169
V5Z5jUyiNvFaqp0EVyLNf0p
p3170
sVJimmy Fallon
p3171
V7mAcgRMD6EfCKHO6cIkDOP
p3172
sVStoney LaRue
p3173
V0T7J61YgErxSH8yuyggHJO
p3174
sVWaxahatchee
p3175
V5IWCU0V9evBlW4gIeGY4zF
p3176
sValt-J
p3177
V3XHO7cRUPCLOr6jwp8vsx5
p3178
sV2Pac
p3179
V1ZwdS5xdxEREPySFridCfh
p3180
sVThis Providence
p3181
V5or8HO8aiwjdIWZxURNx1y
p3182
sVLaura Mvula
p3183
V0Dy94lW3txJhWQHqNXP1BT
p3184
sVMike Gordon
p3185
V2Onb70uN9rRM3VMerSpA37
p3186
sVMarc Anthony
p3187
V4wLXwxDeWQ8mtUIRPxGiD6
p3188
sVPeter Furler
p3189
V6xShY4pstJdzVCrWyeqbCL
p3190
sVDan Fogelberg
p3191
V0cA5Tg15TwARIRZeiNT1RO
p3192
sVThe Monkees
p3193
V320EPCSEezHt1rtbfwH6Ck
p3194
sVWavves
p3195
V6bUJpbekaIlq2fT5FMV2mQ
p3196
sVChuck Berry
p3197
V293zczrfYafIItmnmM3coR
p3198
sVTamia
p3199
V0le01dl1WllSHhjEXRl4in
p3200
sVLiars
p3201
V2z78AlkdwE2Ghj9EB50M6z
p3202
sVDimmu Borgir
p3203
V6e8ISIsI7UQZPyEorefAhK
p3204
sVStrung Out
p3205
V07ATE522e8aDsEb0JVLYqg
p3206
sVRodriguez
p3207
V6dVjlzqj00X6VrZFQ2sMpm
p3208
sVWilliam Fitzsimmons
p3209
V41FEVJCBGidsJwbjq0KfgM
p3210
sVThe Flaming Lips
p3211
V16eRpMNXSQ15wuJoeqguaB
p3212
sVM.I.A.
p3213
V0QJIPDAEDILuo8AIq3pMuU
p3214
sVThe Expendables
p3215
V2OpHxx1SArSMlBrIMM0aV9
p3216
sVHey Violet
p3217
V4JNfz6aO9ZFz0gp5GY88am
p3218
sVBen Kweller
p3219
V7bhMBjjQhgPX0q9S4Ajncn
p3220
sVLaura Story
p3221
V0qKOMcuFgagNQJWHHK7NY6
p3222
sVPreashea Hilliard
p3223
V5WglKKRgHpAp0K1wvW2dVI
p3224
sVMurderdolls
p3225
V5qrZ4EXMTVH4e6odErsQjb
p3226
sVHellogoodbye
p3227
V6GH0NzpthMGxu1mcfAkOde
p3228
sVUtada
p3229
V7lbSsjYACZHn1MSDXPxNF2
p3230
sVRico Love
p3231
V2GEcMpeGIad5O23WxDRFMn
p3232
sVShekinah Glory Ministry
p3233
V50DI0MpQBOtBO0PFtKVQRx
p3234
sVJosh Krajcik
p3235
V0ngASMM5dPGOByz9QmIY7C
p3236
sVThursday
p3237
V61awhbNK16ku1uQyXRsQj5
p3238
sVDavid Allan Coe
p3239
V6nwh8AhPpbwOUnHZJWrHT6
p3240
sVArt Garfunkel
p3241
V6kEsKkXuE4olX7m3mNLZkS
p3242
sVPaolo Nutini
p3243
V7x5rK9BClDQ8wmCkYAGsQp
p3244
sVZola Jesus
p3245
V78OKNrjc3BvniYTqvpOp6P
p3246
sVRobert Earl Keen
p3247
V1jjpkAHC8bd9fRFfgKyYLP
p3248
sVClay Walker
p3249
V4MPkNgar5uTd8Sqvrr7par
p3250
sVSavages
p3251
V1WFsBUAgQmrGQQEUyFKS60
p3252
sVRoscoe Dash
p3253
V0bfX8pF8kuHNCs57Ms4jZb
p3254
sVCarcass
p3255
V5lhaM01nwvsMZpmPY2HVER
p3256
sVBruno Mars
p3257
V0du5cEVh5yTK9QJze8zA0C
p3258
sVRumer
p3259
V0Mk6GS1Xr5tqlQyPNkMZzx
p3260
sVBlake Shelton
p3261
V1UTPBmNbXNTittyMJrNkvw
p3262
sVKip Moore
p3263
V2hJPr4lk7Q8SSvCVBl9fWM
p3264
sVSammy Hagar & The Circle
p3265
V4U4AObukEchsSxMU5piiJL
p3266
sVKeith Harkin
p3267
V5mRROw71EceBbR8KutvmOx
p3268
sVGretchen Wilson
p3269
V0IdYRFTswLdsGwSnzOaGNF
p3270
sVThe Afters
p3271
V1Q9nxD19emMUTTWtFi7jZc
p3272
sVFossil Collective
p3273
V0PhKXBGcwWwVcXCETFd92y
p3274
sVMeat Loaf
p3275
V7dnB1wSxbYa8CejeVg98hz
p3276
sVTwo Tongues
p3277
V3Lb3rspSi0JrxjMp0oyMi6
p3278
sVJames Labrie
p3279
V3bd5EpE5vC93GJT2u0fx4n
p3280
sVCrosby, Stills, Nash & Young
p3281
V1CYsQCypByMVgnv17qsSbQ
p3282
sVCarl Thomas
p3283
V6I6t21SFbxZ7RbQgD5dN7U
p3284
sVJoey Bada$$
p3285
V2P5sC9cVZDToPxyomzF1UH
p3286
sVNathaniel Rateliff & The Night Sweats
p3287
V02seUFsFQP7TH4hLrTj77o
p3288
sVMatt Kennon
p3289
V1j8TDdYLCKek0gbvsRJFVu
p3290
sVQueens Of The Stone Age
p3291
V4pejUc4iciQfgdX6OKulQn
p3292
sVMeek Mill
p3293
V20sxb77xiYeusSH8cVdatc
p3294
sVHezekiah Walker
p3295
V0pXt4sMs2oRnt528LTYgyd
p3296
sVJeremih
p3297
V3KV3p5EY4AvKxOlhGHORLg
p3298
sVMonsters Of Folk
p3299
V7wcYEfyBTrH0iT6J4PgSTj
p3300
sVDeJ Loaf
p3301
V7kFfY4UjNdNyaeUgLIEbIF
p3302
sVMazzy Star
p3303
V37w38cCSGgKLdayTRjna4W
p3304
sVTransplants
p3305
V6f9zLIMqyEu7abKhGMFr5q
p3306
sVMickey Avalon
p3307
V546WiMGysEqWZTzP8hJvB2
p3308
sVOzzy Osbourne
p3309
V6ZLTlhejhndI4Rh53vYhrY
p3310
sVGirls' Generation
p3311
V0Sadg1vgvaPqGTOjxu0N6c
p3312
sVEl Dasa
p3313
V1neZPoVY3mCc2mNMVXslA7
p3314
sVSwindoe
p3315
V7BorxWOt6r2AZsOtXAzQtV
p3316
sVDJ Quik
p3317
V0b2XeWDPeBiLeskT6RFqMb
p3318
sVBraid
p3319
V36gdsrHzKZ0Wyb3uH7ZbEv
p3320
sVMiranda Cosgrove
p3321
V3SYGWAHCe31oykdeUPpoJp
p3322
sVJungle
p3323
V59oA5WbbQvomJz2BuRG071
p3324
sVCommodores
p3325
V6twIAGnYuIT1pncMAsXnEm
p3326
sVJohn Frusciante
p3327
V7rN3Agir6FaZNfhf5V7mfN
p3328
sVMichael Bolton
p3329
V6YHEMoNPbcheiWS2haGzkn
p3330
sVQuadron
p3331
V3GhVFlFT3pagjVkslQPqoJ
p3332
sVVertical Church Band
p3333
V3eEyOyEvZ5UCO3nyqKIvbr
p3334
sVBea Miller
p3335
V1o2NpYGqHiCq7FoiYdyd1x
p3336
sVBrett Dennen
p3337
V0FC1LIeQXKib0jOwZqeIwT
p3338
sVBret Michaels
p3339
V1eKucUW0u8DXDBkNCewl0m
p3340
sVJonathan Coulton
p3341
V292sg99iIOc93zcd30r4Oz
p3342
sVAna Isabelle
p3343
V69vrWFbPlmkfQjMKojkeqG
p3344
sVKutt Calhoun
p3345
V78nL8LitGR7vO0qp2iZF9E
p3346
sVKeKe Wyatt
p3347
V0KWcq2E8ejxp78jdfpCd4K
p3348
sVPorcupine Tree
p3349
V5NXHXK6hOCotCF8lvGM1I0
p3350
sVK'Jon
p3351
V7KTMw4g3OqEh9Jz1HmF7bo
p3352
sVAlessia Cara
p3353
V2wUjUUtkb5lvLKcGKsKqsR
p3354
sVGerald Albright
p3355
V3bhckpkRmz8mqONUceSutp
p3356
sVMelody Gardot
p3357
V2P1puQXmG48EVLBrHbum1J
p3358
sVThe Vamps
p3359
V7gAppWoH7pcYmphCVTXkzs
p3360
sVChrisette Michele
p3361
V3YJMzGjAm245zwJooY7PEj
p3362
sVPreservation Hall Jazz Band
p3363
V2S0rCVs10P1Q0v51wmOrM5
p3364
sVCathedrals
p3365
V7HIjKw4rHS0MtmV0cqSlpB
p3366
sVSoil
p3367
V4PoYwGOztIrPpBfRIlMSxP
p3368
sVShawn McDonald
p3369
V0alRw2BasYQZdFSJLfLbIY
p3370
sVStyles P
p3371
V2x8KDZdSONA3872CnhaAlX
p3372
sVMike Jones
p3373
V07VmOvmuBp9G0gb8BTrpn0
p3374
sVRodney Atkins
p3375
V2qgvmDsc4jrqbAbjq1HGM2
p3376
sVTimbaland
p3377
V5Y5TRrQiqgUO4S36tzjIRZ
p3378
sVAubrey O'Day
p3379
V6M0WvdiehFFWsxqxtBiVBF
p3380
sVSleepwave
p3381
V43LxSfgAU06YH9syb0eG7w
p3382
sVSent By Ravens
p3383
V0sOGQm1G25WEPhek1WI9Fe
p3384
sVBlonde Redhead
p3385
V5isqImG0rLfAgBJSPMEVXF
p3386
sVMagic Man
p3387
V6ejhZKxWJr9apHAzj74DHv
p3388
sVBoards Of Canada
p3389
V2VAvhf61GgLYmC6C8anyX1
p3390
sVRocco DeLuca And The Burden
p3391
V6bllZtx0FQKwp40G2UGiHS
p3392
sVTomahawk
p3393
V6yyZgcrQ10gThrJxzqogiP
p3394
sVChase Rice
p3395
V6pBNfggcZZDCmb0p92OnGn
p3396
sVTravis Porter
p3397
V6z1cicLMt9XArxN10q7m8a
p3398
sVKathy Taylor
p3399
V5cdnrDu9GGZGEiCdWNMfFh
p3400
sVPaul Wall
p3401
V0k7Xl1pqI3tu8sSEjo5oEg
p3402
sVAmerican Authors
p3403
V0MlOPi3zIDMVrfA9R04Fe3
p3404
sVTierra Cali
p3405
V4JqzwqRUOCEHeIVRDWG5Jv
p3406
sVThe Doobie Brothers
p3407
V39T6qqI0jDtSWWioX8eGJz
p3408
sVKierra Sheard
p3409
V4x3CdMQ3YjnPn4Evhyni5y
p3410
sVFor Today
p3411
V3xvHWAD1Bz6vvVmVMPpZJs
p3412
sVKatatonia
p3413
V2CWWgbxApjbyByxBBCvGTm
p3414
sVJob For A Cowboy
p3415
V5L3QTPofDwMPGlNnQkyHK1
p3416
sVParamore
p3417
V74XFHRwlV6OrjEM0A2NCMF
p3418
sVAvicii
p3419
V1vCWHaC5f2uS3yhpwWbIA6
p3420
sVMatt Wertz
p3421
V6JVRYNneRsYNInT4TNr5vU
p3422
sVAlkaline Trio
p3423
V1aEYCT7t18aM3VvM6y8oVR
p3424
sVGogol Bordello
p3425
V2SVw939fwuqSobLjF8u78b
p3426
sVSystem Of A Down
p3427
V5eAWCfyUhZtHHtBdNk56l1
p3428
sVKrewella
p3429
V0Cd6nHYwecCNM1sVEXKlYr
p3430
sVJakob Dylan
p3431
V2b3drQxjyrPpJEef3mNGwc
p3432
sVTalking Heads
p3433
V2x9SpqnPi8rlE9pjHBwmSC
p3434
sVElle King
p3435
V3bhu7P5PfngueRHiB9hjcx
p3436
sVGood Charlotte
p3437
V5aYyPjAsLj7UzANzdupwnS
p3438
sVTrisha Yearwood
p3439
V3XlIhgydjvC4EniPFZT20j
p3440
sVChristian Kane
p3441
V7pe9RADjXbcHXwxnCHaHRd
p3442
sVDum Dum Girls
p3443
V65ewrL6LvcNGMMRVlksNGS
p3444
sVDillon Francis
p3445
V5R3Hr2cnCCjt220Jmt2xLf
p3446
sVDrop Dead, Gorgeous
p3447
V7ib9jRPvGJ6VPCTg35G2L9
p3448
sVJarren Benton
p3449
V5YI7PJwny5JsO7djczHwhP
p3450
sVCharlie Worsham
p3451
V1nYvElumwIjMkOczb985bq
p3452
sVCharlie Hall
p3453
V0Przo8VxOHYfZv9FMZWsWV
p3454
sVCarolina Liar
p3455
V0OuSnRyi1OkLPkR4AqzJwi
p3456
sVThrice
p3457
V3NChzMpu9exTlNPiqUQ2DE
p3458
sVAFI
p3459
V19I4tYiChJoxEO5EuviXpz
p3460
sVDerek Webb
p3461
V2YPUYmSXbes3Y0SWEAkp3F
p3462
sVYeah Yeah Yeahs
p3463
V3TNt4aUIxgfy9aoaft5Jj2
p3464
sVGregg Allman
p3465
V0yDmbRjVTQsQd3OnMs5s3I
p3466
sVLimp Bizkit
p3467
V165ZgPlLkK7bf5bDoFc6Sb
p3468
sVThe Black Angels
p3469
V0VNWuGf8SMVU2AerpdhMbP
p3470
sVPress Play
p3471
V5fHk07xqQp5IMnsLzLZK1H
p3472
sVTrey Anastasio
p3473
V3Felk6Y6jjU00yE1XTOqKZ
p3474
sVRush
p3475
V2Hkut4rAAyrQxRdof7FVJq
p3476
sVThe Lemonheads
p3477
V6w7fc6IZlo5zwBaKT5jU1X
p3478
sVMissy Elliott
p3479
V2wIVse2owClT7go1WT98tk
p3480
sVDuran Duran
p3481
V0lZoBs4Pzo7R89JM9lxwoT
p3482
sVKnife Party
p3483
V2DuJi13MWHjRHrqRUwk8vH
p3484
sVMike Doughty
p3485
V7GiYUU4EMCOMkpaDD8fzDR
p3486
sVRoss Lynch
p3487
V4UxLFBvSr4xMDpHe1lrLrH
p3488
sVLa Coka Nostra
p3489
V0BK94SazL2jI020Y8ezR4f
p3490
sVVince Gill
p3491
V3IhWQSrLj8EJjdvjFTpCyo
p3492
sVMe First And The Gimme Gimmes
p3493
V0cOVRC8EOwDwXrs3JTrRN5
p3494
sVSick Puppies
p3495
V7qAcXJgt1PWnxwUgxMdyuk
p3496
sVWeezer
p3497
V3jOstUTkEu2JkjvRdBA5Gu
p3498
sVJay Sean
p3499
V4pADjHPWyrlAF0FA7joK2H
p3500
sVJonny Lang
p3501
V5rX1EodZfwxmW4fQX2Caot
p3502
sVChris Thile
p3503
V1dyGPAYZZHHW6WIqwKN5QF
p3504
sVCrowder
p3505
V39xmI59WrIMyyJjSDq6WCu
p3506
sVThievery Corporation
p3507
V25KNo5GDS6ZpLkjasaecA3
p3508
sVChriston Gray
p3509
V0gOMnWbGP52F3paKcp5Ts2
p3510
sVWZRD
p3511
V415rtLOb1FDKZAxo1IJ1hW
p3512
sVMatt Skiba And The Sekrets
p3513
V4w1CZK8eG362JiAmpc3phZ
p3514
sVOh, Sleeper
p3515
V3HMsQNXUa0je3yG5REHkQ7
p3516
sVThompson Square
p3517
V0Bvs8yPjrQSbmVIRqSg1Sp
p3518
sVP Reign
p3519
V0bdJZl7TDeiymDYzMJnVh2
p3520
sVThe Bangles
p3521
V51l0uqRxGaczYr4271pVIC
p3522
sVtobyMac
p3523
V5VX8hxrcfJWwaTLiqGUHG3
p3524
sVConor Maynard
p3525
V6mU8ucezzms5I2kNH6HNlu
p3526
sVAsia
p3527
V1bdytLV3FPjyhfrb6BhMej
p3528
sVKellie Pickler
p3529
V021hNAnkFIbyFyL97br6NB
p3530
sVSteve Holy
p3531
V0iYwcf0XreyCAswJOJMOII
p3532
sVTwenty One Pilots
p3533
V3YQKmKGau1PzlVlkL1iodx
p3534
sVPapa Roach
p3535
V4RddZ3iHvSpGV4dvATac9X
p3536
sVJohnny Winter
p3537
V2ODUxmFxJSyvGiimNhMHbO
p3538
sVDailey & Vincent
p3539
V7xmd7RPLO292xIiLMAryFQ
p3540
sVSmallpools
p3541
V4iiQabGKtS2RtTKpVkrVTw
p3542
sVRandy Rogers Band
p3543
V04DUpHOyQqwbHFyvIhcGi3
p3544
sVI The Breather
p3545
V6OpFzG0Srh37pwJUdwsETa
p3546
sVJ Alvarez
p3547
V6XFITTl7cFTdopDY3lUdlY
p3548
sVAriel Pink's Haunted Graffiti
p3549
V5H0YoDsPDi9fObFmJtTjfN
p3550
sVCat Stevens
p3551
V08F3Y3SctIlsOEmKd6dnH8
p3552
sVJekalyn Carr
p3553
V5ynRYAGjyPDE8unsFqi6MH
p3554
sVJa Rule
p3555
V1J2VVASYAamtQ3Bt8wGgA6
p3556
sVThe Kooks
p3557
V1GLtl8uqKmnyCWxHmw9tL4
p3558
sVAttack Attack!
p3559
V1FcRUsTmnEQfVCH5OIKSpb
p3560
sVChildish Gambino
p3561
V73sIBHcqh3Z3NyqHKZ7FOL
p3562
sVCourt Yard Hounds
p3563
V3XMWZ3I5cZI74S8Pdrnfsh
p3564
sVEric Paslay
p3565
V4TONBKcqVR1LmPdfJxvkMU
p3566
sVJunkie XL
p3567
V5svDnd8joFhbpbA3Ar0CfN
p3568
sVTobacco
p3569
V3ikKyCOrsMeANi0d5u8BCR
p3570
sVEisley
p3571
V2IL35FbYiOta150uSYBCEg
p3572
sVHot Chip
p3573
V37uLId6Z5ZXCx19vuruvv5
p3574
sVShania Twain
p3575
V5e4Dhzv426EvQe3aDb64jL
p3576
sVNew York Dolls
p3577
V0WhGV9lzljq2QKJ8ipw6jx
p3578
sVFlying Colors
p3579
V7vdTrczuBydSrfUcoruaeX
p3580
sVFrank Sinatra
p3581
V1Mxqyy3pSjf8kZZL4QVxS0
p3582
sVTom Petty And The Heartbreakers
p3583
V4tX2TplrkIP4v05BNC903e
p3584
sVNew Politics
p3585
V3RbyaF3Pq6iDUKNp04AIcU
p3586
sVMarvin Gaye
p3587
V3koiLjNrgRTNbOwViDipeA
p3588
sVDisclosure
p3589
V6nS5roXSAGhTGr34W6n7Et
p3590
sVBig Data
p3591
V4S1nvNHWiZLP4rzwmULmUa
p3592
sVOzomatli
p3593
V1An0HCtDktvCBDdFEu7HC0
p3594
sVFozzy
p3595
V59CIPNdUfewexxn1CJEdp5
p3596
sVCarly Simon
p3597
V4FtSnMlCVxCswABUmdhwpm
p3598
sVPesado
p3599
V4BwiodzEp9Hwes5HeFjMVK
p3600
sVDerek Minor
p3601
V3fn8lZLy7Q61AXCWWPYC4B
p3602
sVThe Civil Wars
p3603
V6J7rw7NELJUCThPbAfyLIE
p3604
sVThe Grouch & Eligh
p3605
V6atrA9ysSgjJXw8NZH0vjZ
p3606
sVSevyn Streeter
p3607
V6If57j6e3TXXk0HiLcIZca
p3608
sVMuddy Waters
p3609
V4y6J8jwRAwO4dssiSmN91R
p3610
sVAlexisOnFire
p3611
V53RsXctnNmj9oKXvcbvzI2
p3612
sVJose Gonzalez
p3613
V4898PTcl96viuD5XhB0kUF
p3614
sVThe Mavericks
p3615
V4Ud7lY9V8pOyydumajSW3O
p3616
sVThy Art Is Murder
p3617
V3et9upNERQI5IYt5jEDTxM
p3618
sVJosh Garrels
p3619
V16QSVsPKl743hu4U5C18R8
p3620
sVColdplay
p3621
V4gzpq5DPGxSnKTe4SA8HAU
p3622
sVJackson Browne
p3623
V5lkiCO9UQ8B23dZ1o0UV4m
p3624
sVTyrone Wells
p3625
V5zeCSgiRyezbfLiGOpKAsR
p3626
sVThe ARCS
p3627
V3mVWMgLc7bcyCBtL2ymZwK
p3628
sVJames Fortune & FIYA
p3629
V7y5m6uRR6Cp7NiebeY7unO
p3630
sVBig Boi
p3631
V2ht3wxeT69CzyKFChNnNAB
p3632
sVGucci Mane
p3633
V13y7CgLHjMVRMDqxdx0Xdo
p3634
sVPleasure P
p3635
V6dROiL44pIQZVNZ6Bc0OJO
p3636
sVLarry The Cable Guy
p3637
V2iVKGetYUZQElKZKWECyF4
p3638
sVPeter Bjorn And John
p3639
V6u11Qbko2N2hP4lTBYjX86
p3640
sVDAY26
p3641
V7dpKVB4mK3ufNdZOpMKtrd
p3642
sVCHON
p3643
V2JFljHPanIjYy2QqfNYvC0
p3644
sVVaShawn Mitchell
p3645
V1Agf8ZtreYoKAXgpeAd7GA
p3646
sVThe Get Up Kids
p3647
V54Bjxn26WsjfslQbNVtSCm
p3648
sViwrestledabearonce
p3649
V2eFVIT8j6TJ7pPMhZYPwti
p3650
sVCowboy Junkies
p3651
V3CYSRCHfilgR8DSbkCMp5j
p3652
sVSeth Walker
p3653
V3Bl4eNAFJkXXi0ewcjgGP9
p3654
sVKenny Rogers & Dolly Parton
p3655
V2BtxYnRcY9mkACmrHgvXH4
p3656
sVFurther Seems Forever
p3657
V1Enp9WKfk0aI9CFi2YGBq7
p3658
sVDoomtree
p3659
V2VdhtgJVCayzvFtnq98XJn
p3660
sVJapandroids
p3661
V2WcCoPxAWFNSCvsFPrpf30
p3662
sVJay Rock
p3663
V28ExwzUQsvgJooOI0X1mr3
p3664
sVLondon Philharmonic Orchestra
p3665
V3PfJE6ebCbCHeuqO4BfNeA
p3666
sVFat Joe
p3667
V3ScY9CQxNLQei8Umvpx5g6
p3668
sVJake Owen
p3669
V1n2pb9Tsfe4SwAjmUac6YT
p3670
sVBilly Joe Shaver
p3671
V05FEKb23HHED5ZsWmKo8kz
p3672
sVK Camp
p3673
V5bgfj5zUoWpyeVatGDjn6H
p3674
sVSeventh Day Slumber
p3675
V6kFLnclYFc3gzpNt13wim5
p3676
sVTaintstick
p3677
V418R0vu5QMyMMKO5gINPB2
p3678
sVThe Fratellis
p3679
V3M4ThdJR28z9eSMcQHAZ5G
p3680
sVThe Laurie Berkner Band
p3681
V6T2pk5T8c4Wi61x1v84sUa
p3682
sVWaylon Jennings
p3683
V7wCjDgV6nqBsHguQXPAaIM
p3684
sVImpending Doom
p3685
V0sxW2BJTemkPy8tDeO1s0t
p3686
sVChino & Nacho
p3687
V5NS0854TqZQVoRmJKSWtFZ
p3688
sVSmith & Myers
p3689
V3L7yYf09MZWuZhZl5e92Xe
p3690
sVPJ Harvey
p3691
V12VaqyEhgwDRuFfEqbnrpz
p3692
sVSeal
p3693
V5GtMEZEeFFsuHY8ad4kOxv
p3694
sVMelinda Doolittle
p3695
V0X9gb2eyRES9z1wiIQExLL
p3696
sVToo $hort
p3697
V4sb7rZNN93BSS6Gqgepo4v
p3698
sVSerena Ryder
p3699
V3jmxkI8Jhv8bHOd2qSiU9j
p3700
sVDon Henley
p3701
V5dbuFbrHa1SJlQhQX9OUJ2
p3702
sVSage Francis
p3703
V2E78kTKamtXgdRkK1jrc0f
p3704
sVDJ Drama
p3705
V5oNgAs7j5XcBMzWv3HAnHG
p3706
sVRod Stewart
p3707
V2y8Jo9CKhJvtfeKOsYzRdT
p3708
sVBig Kenny
p3709
V3C83eoNbjeMhjX5XZ4vqtj
p3710
sVPaul Baloche
p3711
V1jH3GuQCPI87UrS0hcScHr
p3712
sVOkkervil River
p3713
V5E7zSu46SqTmgKqsc0tFkY
p3714
sVThe Whispers
p3715
V2XzHxDFTNywDd5ReMhgxkg
p3716
sVOh Land
p3717
V46CuxapoPjUfIOiXdNq7qM
p3718
sVJason Mraz
p3719
V4phGZZrJZRo4ElhRtViYdl
p3720
sVArcangel
p3721
V4SsVbpTthjScTS7U2hmr1X
p3722
sVRodrigo y Gabriela
p3723
V7vX3cMVyW8gtDA4y855ynF
p3724
sVPriscilla Ahn
p3725
V5oU0tZlItLctcLOQPS3mCy
p3726
sVFM Static
p3727
V043r4OwwUAYREkBLK5jAiV
p3728
sVNorth Mississippi Allstars
p3729
V714osTgzZrkyf3SGjggpfY
p3730
sVEnya
p3731
V6uothxMWeLWIhsGeF7cyo4
p3732
sVCounterparts
p3733
V5LyRnL0rysObxDRxzSfV1z
p3734
sVGiorgio Moroder
p3735
V6jU2Tt13MmXYk0ZBv1KmfO
p3736
sVGlass Animals
p3737
V4yvcSjfu4PC0CYQyLy4wSq
p3738
sVBalance And Composure
p3739
V2fgl3me4n9diODTrVfruF3
p3740
sVJosh Groban
p3741
V6cXMpsP9x0SH4kFfMyVezF
p3742
sVIan Hunter And The Rant Band
p3743
V60HWOjbhP64HATY9yH5ZDz
p3744
sVMarcus Miller
p3745
V6fmq5mv6HnduZdlTOEYBC9
p3746
sVWilco
p3747
V2QoU3awHVdcHS8LrZEKvSM
p3748
sVWar Of Ages
p3749
V4s407eN0H9FQyRMc1n3Spx
p3750
sVThe Ghost Inside
p3751
V6kQB2RN7WwryMdJ1MoQh1E
p3752
sVBreaking Benjamin
p3753
V5BtHciL0e0zOP7prIHn3pP
p3754
sVPierce The Veil
p3755
V4iJLPqClelZOBCBifm8Fzv
p3756
sVBas
p3757
V70gP6Ry4Uo0Yx6uzPIdaiJ
p3758
sVAndrae Crouch
p3759
V3pxLSxg8klHu1L9d93cpq7
p3760
sVBo Burnham
p3761
V2Waw2sSbqvAwK8NwACNjVo
p3762
sVCracker
p3763
V0ODQJS4mk7rVBJXjdqByX6
p3764
sVBlack Lips
p3765
V35C0NSLogAwImm8HAMqEmG
p3766
sVThe Baby Einstein Music Box Orchestra
p3767
V3TW7S3OjH8GmXtfvMHzOWb
p3768
sVJoey + Rory
p3769
V31Esw1yHgJZBPcRa4nUyTP
p3770
sVThe Black Keys
p3771
V7mnBLXK823vNxN3UWB7Gfz
p3772
sVEli Young Band
p3773
V6eKWqnckwdIlSnjaYgIyxv
p3774
sVCalibre 50
p3775
V4jogXSSvlyMkODGSZ2wc2P
p3776
sVCharice
p3777
V0AuZVHIr5WSEBbBLZwWwWc
p3778
sVGrateful Dead
p3779
V4TMHGUX5WI7OOm53PqSDAT
p3780
sVMetal Allegiance
p3781
V0WMCrmC96IpOteF4W4mZ3v
p3782
sVJJ Lawhorn
p3783
V3HvapZ323lwmK8tu8JsLvb
p3784
sVCharlie Puth
p3785
V6VuMaDnrHyPL1p4EHjYLi7
p3786
sVGin Blossoms
p3787
V6kXp61QMZFPcKMcRPqoiVj
p3788
sVIron Maiden
p3789
V6mdiAmATAx73kdxrNrnlao
p3790
sVFoy Vance
p3791
V4bUqnkrDrb4f7rqmDR9yDu
p3792
sVYoung The Giant
p3793
V4j56EQDQu5XnL7R3E9iFJT
p3794
sVMellowHype
p3795
V5CCrgHVEWtg8YTEn1UaYug
p3796
sVAlejandro Fernandez
p3797
V6sq1yF0OZEWA4xoXVKW1L9
p3798
sVParachute
p3799
V2PCUhxD40qlMqsKHjTZD2e
p3800
sVEagles Of Death Metal
p3801
V02uYdhMhCgdB49hZlYRm9o
p3802
sVLove And Theft
p3803
V03a5eVjzFyQlR4XyVSwt4t
p3804
sVSilverstein
p3805
V1Tsag5J854qxeOo2apszug
p3806
sVEaston Corbin
p3807
V070kGpqtESdDsLb3gdMIyx
p3808
sVJimmy Buffett
p3809
V28AyklUmMECPwdfo8NEsV0
p3810
sVSara Bareilles
p3811
V2Sqr0DXoaYABbjBo9HaMkM
p3812
sV10 Years
p3813
V0REMf7H0VP6DwfZ9MbuWph
p3814
sVAlex Clare
p3815
V5Tf4EH8tDvznnjULcFxkIl
p3816
sVThe White Stripes
p3817
V4F84IBURUo98rz4r61KF70
p3818
sVAudrey Assad
p3819
V1GKYNY4rIPnOuTfC0J1IWw
p3820
sVFrom Indian Lakes
p3821
V3YvQkjWJ5ykJVUNP7YbTy9
p3822
sVAnberlin
p3823
V5v61OSg53KaQxGMpErkBNp
p3824
sVEXO-K
p3825
V6wPBIyIIMxoqgux29bGF8I
p3826
sVKSM
p3827
V0SvYb7P2vptgR6SN0ybgfb
p3828
sVPhosphorescent
p3829
V57kIMCLPgkzQlXjblX7XXP
p3830
sVSarah McLachlan
p3831
V4NgNsOXSwIzXlUIJcpnNUp
p3832
sVDavid Gilmour
p3833
V2FcC4sDMXme2ziI7tGKMK8
p3834
sVSZA
p3835
V7tYKF4w9nC0nq9CsPZTHyP
p3836
sVGreyson Chance
p3837
V0Qnx1MPnHYt3jJCYrRFVwX
p3838
sVNelly
p3839
V2gBjLmx6zQnFGQJCAQpRgw
p3840
sVPhillips, Craig & Dean
p3841
V0g5OkLnQogzLrT9s5vw6kl
p3842
sVDoom
p3843
V2JnBROOuiCcAUktd5pHB0K
p3844
sVSOJA
p3845
V2vaWvC8suCFkRXejDOK7EE
p3846
sVKristin Chenoweth
p3847
V3DgcBA7P0ji5co7Z1Gfp2Q
p3848
sVJessie James
p3849
V2oPXxg1IOzTBPDro5cJBJj
p3850
sVDaniel Rossen
p3851
V2N7DBqf05DIw5tqKLRAUq4
p3852
sVWolves At The Gate
p3853
V0Z88iXWc4YVhtu1eFtsGk6
p3854
sVThe Darkness
p3855
V5r1bdqzhgRoHC3YcCV6N5a
p3856
sVJerrod Niemann
p3857
V0RKP52f5PNDCRZ9Luq2Sr7
p3858
sVColton Dixon
p3859
V52oVYHQ99ORZzeig2YGo4R
p3860
sVButch Walker
p3861
V7qKoy46vPnmIxKCN6ewBG4
p3862
sVEstelle
p3863
V5T0MSzX9RC5NA6gAI6irSn
p3864
sVDrama
p3865
V12TExsj9uJh3sSVGU9TbKl
p3866
sVThe Black Dahlia Murder
p3867
V4xTDPgk4jHCF0qui3dH6BS
p3868
sVNeon Trees
p3869
V0RpddSzUHfncUWNJXKOsjy
p3870
sVCherub
p3871
V00dwwnz3V4kRfu3UFYpJLz
p3872
sVPropaganda
p3873
V28yIUgPYZqgJoNZjeBvrHn
p3874
sVLinkin Park
p3875
V6XyY86QOPPrYVGvF9ch6wz
p3876
sVODESZA
p3877
V21mKp7DqtSNHhCAU2ugvUw
p3878
sVWilliam Shatner
p3879
V2dPqql8xbby3nWuf98mAza
p3880
sVChristina Perri
p3881
V7H55rcKCfwqkyDFH9wpKM6
p3882
sVTwo Gallants
p3883
V38umPQJRH11dxydNwq8yGP
p3884
sVPete Yorn
p3885
V5l2EAkfckNPYZbEDbQtEkO
p3886
sVR.E.M.
p3887
V4KWTAlx2RvbpseOGMEmROg
p3888
sVRevolution Saints
p3889
V6tq1dv7rzt2khH82JuCWhg
p3890
sVLMFAO
p3891
V3sgFRtyBnxXD5ESfmbK4dl
p3892
sVLeToya
p3893
V5xenrbYhp4IRydrWpBe4Bx
p3894
sVJukebox The Ghost
p3895
V0L8jXe7QeS9oYUoXbANmX4
p3896
sVChevelle
p3897
V56dO9zeHKuU5Gvfc2kxHNw
p3898
sVReal Estate
p3899
V41SQP16hv1TioVYqdckmxT
p3900
sVO.A.R.
p3901
V1Cq0LAHFfvUTBEtMPXUidI
p3902
sVDavid Gray
p3903
V7J2lZBANizgPNfUzux31PV
p3904
sVMenomena
p3905
V676oR6vRgfSzaBibbPhLhH
p3906
sVWilliam Beckett
p3907
V7CtuVv4AQbupHTsr3E4d9p
p3908
sVDavid Cook
p3909
V4SQxI8xg6LcSWL3KuGVHLa
p3910
sVThe Hit Crew
p3911
V76PJKS3IQsf4sSayx2taE0
p3912
sVToni Braxton
p3913
V3X458ddYA2YcVWuVIGGOYe
p3914
sVJennifer Nettles
p3915
V2WV4xLQooFalR2cit0XSKp
p3916
sVThe Dave Brubeck Quartet
p3917
V4iRZAbYvBqnxrbs6K25aJ7
p3918
sVJamey Johnson
p3919
V5yhxqYI0JBwUKfXpSEjiM8
p3920
sVJames McMurtry
p3921
V52BKc9OtCbQstAAPTIvLGH
p3922
sVScissor Sisters
p3923
V3Y10boYzeuFCJ4Qgp53w6o
p3924
sVBryan Ferry
p3925
V5RNFFojXkPRmlJZIwXeKQC
p3926
sVDoris Day
p3927
V3ESG6pj6a0LvUKklENalT6
p3928
sVKiD iNk
p3929
V6KZDXtSj0SzGOV705nNeh3
p3930
sVJohn Prine
p3931
V0nJUwPwC9Ti4vvuJ0q3MfT
p3932
sVHolly Williams
p3933
V5mfdtMy6vJUShmdyCuJhox
p3934
sVDane Cook
p3935
V6RAiPa076RxBeTBxWO8Xfh
p3936
sVChiodos
p3937
V4ZIBrskTJWmkJUvM7uAu1o
p3938
sVHey Monday
p3939
V6we2CCxymhh4v30lZRhhpa
p3940
sVTribal Seeds
p3941
V7jgZFR40bWjwOrRCOZFB02
p3942
sVLike A Storm
p3943
V5gFZo6Oh5WehnbEj0XtxiF
p3944
sVAlan Jackson
p3945
V4mxWe1mtYIYfP040G38yvS
p3946
sVDon Williams
p3947
V4Ti0EKl2PVEms2NRMVGqNe
p3948
sVTravi$ Scott
p3949
V0Y5tJX1MQlPlqiwlOH1tJY
p3950
sVViolent J
p3951
V02WFRlMwbZO6QfBJgZRNFa
p3952
sVBritt Nicole
p3953
V6BXionV4R0BunrFpSwIMUK
p3954
sVCarnifex
p3955
V4nqY8hkQNkHaDq4fdVxdYr
p3956
sVSoMo
p3957
V5AtWO8IEnjhRLzaVVQxFUs
p3958
sVEl Trono De Mexico
p3959
V5L6QAKAkdJIPLsNbItZ2KF
p3960
sVFetty Wap
p3961
V6PXS4YHDkKvl1wkIl4V8DL
p3962
sVThe Horrors
p3963
V7EFB09NxZrMi9pGlOnuBpd
p3964
sVStorm Corrosion
p3965
V73p7913nnreqv6jbWpeNb1
p3966
sVCreedence Clearwater Revisited
p3967
V5nqr3PugZYyBcQrnKtFkAu
p3968
sVSlayer
p3969
V1IQ2e1buppatiN1bxUVkrk
p3970
sVSelena Gomez & The Scene
p3971
V6dJeKm76NjfXBNTpHmOhfO
p3972
sVShake The Nation
p3973
V1oxfyHOhHZd9AHiFzS7st1
p3974
sVMatt Hires
p3975
V5r2ltbRmBrS2c0J4oTwfGo
p3976
sVNevermore
p3977
V1wUArE0NhHB8M1bU2WSplY
p3978
sVBettye LaVette
p3979
V55U998XxmxjicLMKDSz6R3
p3980
sVTimeflies
p3981
V6dC0rIJNLSFZwqckLgXJ8p
p3982
sVClipse
p3983
V2J257euzcjnDLipsyJH3F2
p3984
sV3 Inches Of Blood
p3985
V0gNkDUN42nBxKOcpoF7iQ4
p3986
sVGucci Mane & Waka Flocka Flame
p3987
V3qbPLAIrOivlpPNaTECuai
p3988
sVNatalie Grant
p3989
V6KVnMm856M8CHHBCw53Ihh
p3990
sVDorinda Clark-Cole
p3991
V2izm16Jd9ifkaqR5fxzlTK
p3992
sVBeverly Crawford
p3993
V68qvLA55vYTJrGUvVHOb4M
p3994
sVNew Kids On The Block
p3995
V55qiaow2sDYtjqu1mwRua6
p3996
sVJ. Cole
p3997
V6l3HvQ5sa6mXTsMTB19rO5
p3998
sVI Am The Avalanche
p3999
V60uj1W8gsOriVqdoqLcR2O
p4000
sVDiana Krall
p4001
V5z1VAFwT35EVvCp1XlZZuL
p4002
sVTracey Thorn
p4003
V7xFnmid57ZE6iWEXdEXO3b
p4004
sVCharles Bradley
p4005
V462T0buQ5ScBUQCRpodDRf
p4006
sVDark Tranquillity
p4007
V5EHvXKnNz78jkAVgTQLQ5O
p4008
sVProject 86
p4009
V7toVzxZQU21OjB5PqXNvTF
p4010
sVMichelle Williams
p4011
V6t7nbFAc2dUa7oNu7kBOui
p4012
sVThe Maine
p4013
V4o0pNHbyj36LPvukNqEug0
p4014
sVStevie Nicks
p4015
V7crPfGd2k81ekOoSqQKWWz
p4016
sVdumblonde
p4017
V09euro3EMwjDLkNLF7GbA1
p4018
sVTrip Lee
p4019
V12H1Dmi64fAmmARrsyVFzy
p4020
sVRaekwon
p4021
V2yQf6b8hxahZaT5dHlWaB1
p4022
sVRodney Carrington
p4023
V7xsMZdxw6eEJXGTLZulONO
p4024
sVLily Allen
p4025
V13saZpZnCDWOI9D4IJhp1f
p4026
sVMobb Deep
p4027
V6O2zJ0tId7g07yzHtX0yap
p4028
sVForever The Sickest Kids
p4029
V4frytKnOBrer4QVPWynGtX
p4030
sVBlake Mills
p4031
V4LhV33vJvXmFGSM3m5RzUR
p4032
sVJet
p4033
V5ypxebeHEIXjMtJb17uJlI
p4034
sVSebadoh
p4035
V2wrhBKGC3DTNNNDRJPaxW6
p4036
sVAretha
p4037
V1lJFLBUEojANXowrDUjRa4
p4038
sVThe Friday Night Boys
p4039
V3LVtZP0UUtY35ptAnntYsT
p4040
sVRodrigo y Gabriela And C.U.B.A.
p4041
V50dmq4EFh3IMQYXabvB4jk
p4042
sVSnoop Lion
p4043
V4RxUeUyMaEe2T5tvULq5j0
p4044
sVSarah Jarosz
p4045
V6nFBonVf7Lqaj05R0v5VGJ
p4046
sVKix
p4047
V45KpBChrKYWhTlU6N57ofu
p4048
sVFive For Fighting
p4049
V7FgMLbnZVrEnir95O0YujA
p4050
sVKeith Richards
p4051
V08avsqaGIlK2x3i2Cu7rKH
p4052
sVSolange
p4053
V2auiVi8sUZo17dLy1HwrTU
p4054
sVYo La Tengo
p4055
V5hAhrnb0Ch4ODwWu4tsbpi
p4056
sVBrandy Clark
p4057
V5vMAKlvvMNSRQRYCAvpG6S
p4058
sVThe Hit Crew Kids
p4059
V25WMrBRksXDi16Zjr23VUN
p4060
sVJosh Thompson
p4061
V4BuyNtIXCdb4fHesOdR3io
p4062
sVGreeley Estates
p4063
V2l7ALCv1HxcE32kc3b7vag
p4064
sVPink Martini
p4065
V6KyUat70qaniuiZq63HzFZ
p4066
sVThe Wanted
p4067
V2NhdGz9EDv2FeUw6udu2g1
p4068
sVMark Knopfler
p4069
V0FI0kxP0BWurTz8cB8BBug
p4070
sVThe Canadian Tenors
p4071
V3O5v1qkExBx2B6i9WTWhOE
p4072
sVButch Walker And The Black Widows
p4073
V3XdYdbtieFIBKcVFG5lKoR
p4074
sVRhye
p4075
V2AcUPzkVWo81vumdzeLLRN
p4076
sVWe Are Harlot
p4077
V2Gf3bDVBECfT7UCU3XcvlD
p4078
sVJeremy Camp
p4079
V5wpEBloInversG3zp3CVAk
p4080
sVFight Or Flight
p4081
V4KPwr7woJJBnM4r0pXaJH7
p4082
sVCommon
p4083
V2GHclqNVjqGuiE5mA7BEoc
p4084
sVDon Omar
p4085
V33ScadVnbm2X8kkUqOkC6Z
p4086
sVJeff Lynne
p4087
V3bTAaMx9nf237AkBnGw3vL
p4088
sVJoe Jonas
p4089
V7gbmX8SsfjEjxDMzBi1ZOL
p4090
sVMarty Friedman
p4091
V5czW6bitDSKbNBNDizRT9p
p4092
sVthe bird and the bee
p4093
V65XA3lk0aG9XejO8y37jjD
p4094
sVTLC
p4095
V0TImkz4nPqjegtVSMZnMRq
p4096
sVToby Keith
p4097
V2bA6fzP0lMAQ4kz6CF61w8
p4098
sVA Day To Remember
p4099
V4NiJW4q9ichVqL1aUsgGAN
p4100
sVBroods
p4101
V5r5Va4lVQ1zjEfbJSrmCsS
p4102
sVBetter Than Ezra
p4103
V4UuoJfJ9UybJft7a8E6UHX
p4104
sVMac DeMarco
p4105
V3Sz7ZnJQBIHsXLUSo0OQtM
p4106
sVAngel Olsen
p4107
V6mKqFxGMS5TGDZI3XkT5Rt
p4108
sVLudo
p4109
V6ok7bEDf9CZ0448D59AaNL
p4110
sVJamie Cullum
p4111
V3XxxEq6BREC57nCWXbQZ7o
p4112
sVThe Almost
p4113
V5X09SRt3qx77eh0XRreLjr
p4114
sVElliott Yamin
p4115
V4am1I89OWXUzFh4ctRLkdd
p4116
sVBon Jovi
p4117
V58lV9VcRSjABbAbfWS6skp
p4118
sVThe Original 7ven
p4119
V23GCMwNi77eY0RlJtaDNYm
p4120
sVFuture Islands
p4121
V1WvvwcQx0tj6NdDhZZ2zZz
p4122
sVBorgore
p4123
V7u160I5qtBYZTQMLEIJmyz
p4124
sVFiona Apple
p4125
V3g2kUQ6tHLLbmkV7T4GPtL
p4126
sVMarianne Faithfull
p4127
V7mlge4peaoNgzTsY6M32RB
p4128
sVKe$ha
p4129
V6LqNN22kT3074XbTVUrhzX
p4130
sVBen Folds
p4131
V55tif8708yyDQlSjh3Trdu
p4132
sVPharrell Williams
p4133
V2RdwBSPQiwcmiDo9kixcl8
p4134
sVJunip
p4135
V7HcipAIJatVGT4U6HQrnFW
p4136
sVBlink-182
p4137
V6FBDaR13swtiWwGhX1WQsP
p4138
sVDisciple
p4139
V1bNg1mVkqHFY6D9ydaXjLH
p4140
sVCreedence Clearwater Revival
p4141
V3IYUhFvPQItj6xySrBmZkd
p4142
sVRomeo Santos
p4143
V5lwmRuXgjX8xIwlnauTZIP
p4144
sVPlayaz Circle
p4145
V5gV9T9VSwhHBlHcRMojEZw
p4146
sVCole Swindell
p4147
V1mfDfLsMxYcOOZkzBxvSVW
p4148
sVMellowHigh
p4149
V0B1prtAE9Ca9hTs0rUkjHG
p4150
sVAnthony Jeselnik
p4151
V320IRZ1nffhXLLcs2CSX20
p4152
sVSmith Westerns
p4153
V3yEqgEvatASNm30zZR3ZHl
p4154
sVAll That Remains
p4155
V2zgG1GPDvjaBgxeQaVXI14
p4156
sVP!nk
p4157
V1KCSPY1glIKqW2TotWuXOR
p4158
sVDuffy
p4159
V37NqXwtb6nIEqRt4EJSoIO
p4160
sVSpiritualized
p4161
V6DKmuXxXASTF6xaJwcTfjv
p4162
sVDeon Kipping
p4163
V5GoBkSWqd1pb7gzf6f71DS
p4164
sVRichard Marx
p4165
V0grdhNhiRLFBaFVyybqsj6
p4166
sVFall Out Boy
p4167
V4UXqAaa6dQYAk18Lv7PEgX
p4168
sVKirk Franklin
p4169
V4akybxRTGHJZ1DXjLhJ1qu
p4170
sVCity And Colour
p4171
V74gcBzlQza1bSfob90yRhR
p4172
sVIndigo Girls
p4173
V4wM29TDTr3HI0qFY3KoSFG
p4174
sVTweedy
p4175
V3F4PBcfdeFdmxjRPS2UdMl
p4176
sVJoshua Davis
p4177
V6Z3gpcNJMzjr9Lv7UbxQhZ
p4178
sVTamar Braxton
p4179
V1MT1Wz4G9Z9EVOg4L5zZMS
p4180
sVVolcano Choir
p4181
V6gAtOqhriLzOzb3Qqmg5kO
p4182
sVJustin Moore
p4183
V30e8DmahrEamvLbFRPdWmk
p4184
sVHilary Weeks
p4185
V18D6DEcWJAz67OWMXLh933
p4186
sVKylesa
p4187
V7mO0JGOATH8fVHvgCdZsXh
p4188
sVPassenger
p4189
V0gadJ2b9A4SKsB1RFkBb66
p4190
sVBleeding Through
p4191
V41btkKEfOGIHsd7WNahMCi
p4192
sVTemples
p4193
V4ogwGU9VPWrnVBs1GEwZVV
p4194
sVTrigger Hippy
p4195
V7eJoJ37qDqiVGCXOYbzPyp
p4196
sVMr. Big
p4197
V5OfhOoKunSnuubxxRML8J3
p4198
sVStory Of The Year
p4199
V0KDuKk6YdEu3hR56HtXmxt
p4200
sVSaint Asonia
p4201
V6Fwq3TDWpMhcL1KTKVQiI8
p4202
sVEmily West
p4203
V20YJEBSWm14EDzjbXNcwDA
p4204
sVNERO
p4205
V4uRYpUQZrNrY5t8tAv3XrD
p4206
sVB-Real
p4207
V2LiWxiQzuD9nmWQ6NCA8Gd
p4208
sVRadiohead
p4209
V4Z8W4fKeB5YxbusRsdQVPb
p4210
sVSmokie Norful
p4211
V0sD8Amms4kSxs5tBV4CUmR
p4212
sVQ-Tip
p4213
V3ZotbHeyVQKxQCPDJuQ4SU
p4214
sVKim Burrell
p4215
V0fW7wYpfi0yzlc8JPP12jA
p4216
sVKing Los
p4217
V29M3C4IzWXrztUr4cV2umC
p4218
sVUnearth
p4219
V44wJRGNtWywCUJZug8FJg3
p4220
sVCasey Abrams
p4221
V1UxNUybRFdtksz3l5HtCEG
p4222
sVfor King & Country
p4223
V3sDbKMebVH2VYcRSl7u1VC
p4224
sVBrendan Benson
p4225
V2Ij97fuR3unjlboQfIYs31
p4226
sV311
p4227
V41Q0HrwWBtuUkJc7C1Rp6K
p4228
sVJo Dee Messina
p4229
V3ltFy7g6KKQPPttsdOMlq3
p4230
sVSharon Needles
p4231
V7yPRmfUuRcpGwOsHVqQgae
p4232
sVAsking Alexandria
p4233
V1caBfBEapzw8z2Qz9q0OaQ
p4234
sVAndrew Bird
p4235
V4uSftVc3FPWe6RJuMZNEe9
p4236
sVDesperation Band
p4237
V1nxvNYN15dvkxVjNfvOaEf
p4238
sVMatt Maher
p4239
V1dPl8axUL09mso0myZqPZW
p4240
sVPoison The Well
p4241
V71t8oi0TjZ9Op6JRrVqaBx
p4242
sVFallujah
p4243
V3C5R32AIZlLfMa3uxLEYrU
p4244
sVJane's Addiction
p4245
V02NfyD6AlLA12crYzw5YcR
p4246
sVJerry Clower
p4247
V4M28hY8a67BAVdDWfn2VsF
p4248
sVKat Edmonson
p4249
V6WxegST7d2jCYjq7SR8Bds
p4250
sVAudio Adrenaline
p4251
V01PBXLThJADrhufsPS5tER
p4252
sVProject Pat
p4253
V08Ld63UgKrJ0nZnCkzHtzc
p4254
sVAmanda Cook
p4255
V32kH7nXJcwt9ZxpMujcu6X
p4256
sVBob Mould
p4257
V0fWvSXbvztkeHEnEuYvU2A
p4258
sVLadytron
p4259
V0ucLPotcQNI7AViFytdhBz
p4260
sVBlaze Ya Dead Homie
p4261
V0AoX5cRnGojriIX6lxmP0D
p4262
sVFeist
p4263
V6CWTBjOJK75cTE8Xv8u1kj
p4264
sVAdele
p4265
V4dpARuHxo51G3z768sgnrY
p4266
sVSenses Fail
p4267
V591yCCsZCLXvaJ0Rg38vLZ
p4268
sVCarman
p4269
V3kTcyaSYP5fqlqrNUvxiER
p4270
sVTig Notaro
p4271
V2qWOTC15qbAUKtaH477oLC
p4272
sVPallbearer
p4273
V2yeEmsTQMNHBlS5dhWtuD1
p4274
sVJimmy Eat World
p4275
V3Ayl7mCk0nScecqOzvNp6s
p4276
sVAllen Stone
p4277
V536osqBGKzeozje8BfcGsa
p4278
sVThe Earls Of Leicester
p4279
V7fFA5wvCHgJ4SIqCuIYFNm
p4280
sVThe Knife
p4281
V7eQZTqEMozBcuSubfu52i4
p4282
sVBlood Orange
p4283
V6LEeAFiJF8OuPx747e1wxR
p4284
sVMeghan Trainor
p4285
V6JL8zeS1NmiOftqZTRgdTz
p4286
sVMogwai
p4287
V34UhPkLbtFKRq3nmfFgejG
p4288
sVLuke James
p4289
V4E7AV8mtElSjHZP3xA9kyU
p4290
sVBorn Of Osiris
p4291
V4HgqjpBaWctBWVHafQIpRt
p4292
sVJack Johnson
p4293
V3GBPw9NK25X1Wt2OUvOwY3
p4294
sVThe Animals
p4295
V3ICflSq6ZgYAIrm2CTkfVP
p4296
sVRelient K
p4297
V3nJWBJvK7uGvfp4iZh9CkN
p4298
sVBrian McKnight
p4299
V6k0IBR0lU42s2GYpNX7kA9
p4300
sVExplosions In The Sky
p4301
V1uQWmt1OhuHGRKmZ2ZcL6p
p4302
sVR. Kelly
p4303
V2mxe0TnaNL039ysAj51xPQ
p4304
sVT-Pain
p4305
V3aQeKQSyrW4qWr35idm0cy
p4306
sVFlobots
p4307
V0rHiOzaAbw3cCp8D7yjyig
p4308
sV21:03
p4309
V0N6Fi2VLCxTWZAjcSQzIB4
p4310
sVKix Brooks
p4311
V1blfMUdqahbMZzbmbbN2j8
p4312
sVSara Ramirez
p4313
V369G5DRwe0MjvyOoyyVXGN
p4314
sVWye Oak
p4315
V5SjNVG3L9mgWQPsfp1sFDB
p4316
sVNew Boyz
p4317
V1ZKqrja0WvbSssYNFO3lzs
p4318
sVMorrissey
p4319
V3iTsJGG39nMg9YiolUgLMQ
p4320
sVThe Underachievers
p4321
V51Pn4gGnZuyOMDfIT1Zy3N
p4322
sVAntony And The Johnsons
p4323
V4fxp616ALtFWnXfwxnjLzW
p4324
sVShane & Shane
p4325
V2LFbgsbEhfilNpQYW7mied
p4326
sVKacey Musgraves
p4327
V70kkdajctXSbqSMJbQO424
p4328
sVSomething Corporate
p4329
V71h7GTahhKcSkQ1ayhTvOD
p4330
sVDeftones
p4331
V6Ghvu1VvMGScGpOUJBAHNH
p4332
sVSebastian Mikael
p4333
V4hknFHNFp3UMm2Rbc6Ansf
p4334
sVGreat Big Sea
p4335
V0GxOdKrtD5oUmQROcCs8M4
p4336
sVYes
p4337
V7AC976RDJzL2asmZuz7qil
p4338
sVLouis Armstrong
p4339
V19eLuQmk9aCobbVDHc6eek
p4340
sVSharon Jones & The Dap-Kings
p4341
V6LufpoVlIYKQCu9Gjpk8B7
p4342
sVState Champs
p4343
V1qqdO7xMptucPDMopsOdkr
p4344
sV3BallMTY
p4345
V1MLs9allBZrajb5Dc4146L
p4346
sVNeil Young
p4347
V6v8FB84lnmJs434UJf2Mrm
p4348
sVRilo Kiley
p4349
V2cevwbv7ISD92VMNLYLHZA
p4350
sVFistful Of Mercy
p4351
V2FZvdkLGXBzQKa7JFn3GKM
p4352
sVGarth Brooks
p4353
V4BclNkZtAUq1YrYNzye3N7
p4354
sVDestiny's Child
p4355
V1Y8cdNmUJH7yBTd9yOvr5i
p4356
sVJason Isbell
p4357
V3Q8wgwyVVv0z4UEh1HB0KY
p4358
sVTobias Jesso Jr.
p4359
V3RosuARXNIOfNYoJXR7fzA
p4360
sVDonnie McClurkin
p4361
V74IEeKcuS34kF2TjOigXra
p4362
sVThird Eye Blind
p4363
V6TcnmlCSxihzWOQJ8k0rNS
p4364
sVDirty Projectors
p4365
V5VF0YkVLeVD4ytyiyVSIiF
p4366
sVLL Cool J
p4367
V1P8IfcNKwrkQP5xJWuhaOC
p4368
sVByron Cage
p4369
V1bxsoj9E6Z2GoHVIswbRez
p4370
sVBilly Currington
p4371
V1By9QBFnjZAoI83BZppHlt
p4372
sVWar
p4373
V3ICyfoySNDZqtBVmaBT84I
p4374
sVErasure
p4375
V0z5DFXmhT4ZNzWElsM7V89
p4376
sVThe Rentals
p4377
V3NmdKZUM96z7NGvL35g5PC
p4378
sVBlues Traveler
p4379
V3pHeBYl1yujXcZqqfF1UyQ
p4380
sVNeedtobreathe
p4381
V610EjgFatGvVPtib97jQ8G
p4382
sVGary Clark Jr.
p4383
V01aC2ikO4Xgb2LUpf9JfKp
p4384
sVMichael Grimm
p4385
V3zQMCx3JC0djoRaAd27dI2
p4386
sVKid Rock
p4387
V7dOBabd5O4CvKrg4iriHTM
p4388
sVTwo Steps From Hell
p4389
V2qvP9yerCZCS0U1gZU8wYp
p4390
sVTrain
p4391
V3FUY2gzHeIiaesXtOAdB7A
p4392
sVMethods Of Mayhem
p4393
V0AnjaOjAt53Ej9223SQv2p
p4394
sVMy Darkest Days
p4395
V64g59lHsc4g2jMFokrKDGW
p4396
sVMayday Parade
p4397
V3WfJ1OtrWI7RViX9DMyEGy
p4398
sVDokken
p4399
V09hNSPPOxDop4FRdr6UEnq
p4400
sVSkillet
p4401
V49bzE5vRBRIota4qeHtQM8
p4402
sVDan Deacon
p4403
V5Z3IWpvwOvoaWodujHw7xh
p4404
sVDaughter
p4405
V46CitWgnWrvF9t70C2p1Me
p4406
sVAndra Day
p4407
V1c4rxrxy8eDLvMVL1DTiBe
p4408
sVAaron Gillespie
p4409
V5B2GfbXgossZt9SE08Iqn6
p4410
sVREO Speedwagon
p4411
V55vs7NT1KxcFjbMC4y202E
p4412
sVJuvenile
p4413
V0rG0AZBscc8S8q1ahIsasI
p4414
sVDave Matthews Band
p4415
V2TI7qyDE0QfyOlnbtfDo7L
p4416
sVRoger Clyne & The Peacemakers
p4417
V3G3O90wIZmjYHTX2vgTVRM
p4418
sVAndrea Bocelli
p4419
V3EA9hVIzKfFiQI0Kikz2wo
p4420
sVThe Dodos
p4421
V10tysauSA5JATqniBDu2Ed
p4422
sVStephen Marley
p4423
V0CIwCGmQMqHqiblnZlFia1
p4424
sVDierks Bentley
p4425
V7x8nK0m0cP2ksQf0mjWdPS
p4426
sVKeri Hilson
p4427
V63wjoROpeh5f11Qm93UiJ1
p4428
sVStatic-X
p4429
V7JDSHlDdVTo7aZKdQZ53Vf
p4430
sVThe Contortionist
p4431
V7nCgNmfYJcsVy3vOOzExYS
p4432
sVBassnectar
p4433
V1JPy5PsJtkhftfdr6saN2i
p4434
sVAnamanaguchi
p4435
V2UwJRAgSOi1zcLkvUNc8XL
p4436
sVTaproot
p4437
V319rafipfKvd4cqaOwWIvA
p4438
sVYo Gotti
p4439
V6Ha4aES39QiVjR0L2lwuwq
p4440
sVJudah & The Lion
p4441
V3wWtfT7S2uVJJ3hGZlOLkZ
p4442
sVThomas Rhett
p4443
V6x2LnllRG5uGarZMsD4iO8
p4444
sVRage Against The Machine
p4445
V2d0hyoQ5ynDBnkvAbJKORj
p4446
sVCold
p4447
V0Gw3a3BkWLwsMLFbOBmo6Q
p4448
sVFoals
p4449
V6FQqZYVfTNQ1pCqfkwVFEa
p4450
sVIcon For Hire
p4451
V1Jy0lTKAQDnTklKzF0g2o7
p4452
sVThe-Dream
p4453
V1W3FSF1BLpY3hlVIgvenLz
p4454
sVWanda Jackson
p4455
V5ZKMPRDHc7qElVJFh3uRqB
p4456
sVKevin Devine
p4457
V66ScZxprvrMbCtN4ivA0JX
p4458
sVThe Spill Canvas
p4459
V4W8SeWrRZUburGZyp5JwYj
p4460
sVDavid Crosby
p4461
V59zdhVoWxSoHMc74n098Re
p4462
sVBeastie Boys
p4463
V03r4iKL2g2442PT9n2UKsx
p4464
sVAimee Mann
p4465
V3UpIbyXfGzmHG6TMH4dJEk
p4466
sVThundercat
p4467
V4frXpPxQQZwbCu3eTGnZEw
p4468
sVAl B. Sure!
p4469
V1fvz0vd4P0LNMkAysF1ivk
p4470
sVSlash
p4471
V4Cqia9vrAbm7ANXbJGXsTE
p4472
sVRhonda Vincent
p4473
V6tLMZjo5mp3G1FmrARUaVT
p4474
sVBig Head Todd And The Monsters
p4475
V1lOQRP0UJWmpoDWBa8PB0B
p4476
sVAziz Ansari
p4477
V4SPvdqkhRp1ARWJvxByVuA
p4478
sVThi'sl
p4479
V1Q45nhioxaxZTDjR0iaMWp
p4480
sVThe Front Bottoms
p4481
V5ictveRyhWRs8Gt8Dvt1hS
p4482
sVThe Kills
p4483
V5BYuBzqmTXwUDw2rYkwExr
p4484
sVRonald Isley
p4485
V6W9RUw7xnNRYtgh8dimg7L
p4486
sVKurt Vile
p4487
V5gspAQIAH8nJUrMYgXjCJ2
p4488
sVBat For Lashes
p4489
V6l77PmL5iuEEcYjGl8K6s7
p4490
sVThe New Basement Tapes
p4491
V2oQpz9DEfhuSbuT8hjhTDK
p4492
sVJonas Brothers
p4493
V7gOdHgIoIKoe4i9Tta6qdD
p4494
sVDr. Dog
p4495
V4mLJ3XfOM5FPjSAWdQ2Jk7
p4496
sVLecrae
p4497
V1CFCsEqKrCyvAFKOATQHiW
p4498
sVRobert Plant
p4499
V1OwarW4LEHnoep20ixRA0y
p4500
sVChristy Nockels
p4501
V0XFBXku1ro7p7bjFQk98o6
p4502
sVCharli XCX
p4503
V25uiPmTg16RbhZWAqwLBy5
p4504
sVHillsong UNITED
p4505
V74cb3MG0x0BOnYNW1uXYnM
p4506
sVThe Wallflowers
p4507
V0jJNGWrpjGIHUdTTJiIYeB
p4508
sVThalia
p4509
V61ITlib6wNBWOiQxsk1l2J
p4510
sVJaron And The Long Road To Love
p4511
V1gnxlAhv4TnE1Kbvcbv8QI
p4512
sVDemi Lovato
p4513
V6S2OmqARrzebs0tKUEyXyp
p4514
sVNinja Sex Party
p4515
V3jsyANBBy6gOZUSQhiGclx
p4516
sVTwo Door Cinema Club
p4517
V536BYVgOnRky0xjsPT96zl
p4518
sVFranco De Vita
p4519
V4NEYQeEYBUjfaXgDQGvFvu
p4520
sVSugar Ray
p4521
V4uN3DsfENc7dp0OLO0FEIb
p4522
sVRichard Thompson
p4523
V5w75MoT8FfcGOMgjgrj1cz
p4524
sVYoung Dro
p4525
V3ZooCJzNMTLpmJaIRUEorI
p4526
sVRyan Leslie
p4527
V3aTMDZLtkFlYQfQL7bzccp
p4528
sVDiane Birch
p4529
V5m2sKBa2fJAm4P2MWfopum
p4530
sVJennifer Lopez
p4531
V2DlGxzQSjYe5N6G9nkYghR
p4532
sVSlaine
p4533
V1z1ctFe6fCr5aZnCGKt6rN
p4534
sVDre Murray
p4535
V5Q45hW4q5wKLjtnJlSgeq0
p4536
sVDrake
p4537
V3TVXtAsR1Inumwj472S9r4
p4538
sVDeerhunter
p4539
V38zTZcuN7nFvVJ6auhc6V3
p4540
sVTech N9ne
p4541
V6UBA15slIuadJ8h2lPRPos
p4542
sVDean Martin
p4543
V49e4v89VmlDcFCMyDv9wQ9
p4544
sVLeona Lewis
p4545
V5lKZWd6HiSCLfnDGrq9RAm
p4546
sVRatt
p4547
V3tufWJzpCiAGleBt5TkmTn
p4548
sVMana
p4549
V6wKVHo2DTmSUhOvjizGHik
p4550
sVPat Green
p4551
V0EhgpjUqiIIQhM6ZRF4kXX
p4552
sVCandice Glover
p4553
V1rHf7vRCsDRBkbA1XGT9e1
p4554
sVElectric Wizard
p4555
V4htjQW3lgIwL6fEJlTOez4
p4556
sVThirty Seconds To Mars
p4557
V0RqtSIYZmd4fiBKVFqyIqD
p4558
sVAugustines
p4559
V0p1LdP1XicX0UA5GNA2DWc
p4560
sVBeBe & CeCe Winans
p4561
V3WNUkxJcJeliFx9KXWXMgs
p4562
sVCartel
p4563
V6wQMF27xWhSyJFnO9L5mQk
p4564
sVLuis Miguel
p4565
V2nszmSgqreHSdJA3zWPyrW
p4566
sVPuss N Boots
p4567
V5cc7BvcBlQC48pdFv2TRUh
p4568
sVIntocable
p4569
V108moq3rq6bm1M4Ypz0J02
p4570
sVKristian Bush
p4571
V6H2X3nGSnuLh8UeEyair9A
p4572
sVPennywise
p4573
V6i0KVTOvm96T55mbp742ks
p4574
sVBernie Williams
p4575
V3usg1Dxx2KFycc9stTTw6C
p4576
sVWisin
p4577
V3E6xrwgnVfYCrCs0ePERDz
p4578
sVJoshua Rogers
p4579
V2KBcqZsPHSmTNVHrW5zkTE
p4580
sVWe Were Promised Jetpacks
p4581
V3gnrmLahFhVXRI9DA1MImH
p4582
sVMethod Man
p4583
V4VmEWwd8y9MCLwexFMdpwt
p4584
sVBad Suns
p4585
V0YhUSm86okLWldQVwJkLlP
p4586
sVRyan Bingham & The Dead Horses
p4587
V3KWuGlHMj4BRPXw9FgaVhx
p4588
sVMeiko
p4589
V6tW9jWf8lpuzDzAdVMvNMV
p4590
sVThe Green
p4591
V5RkXaPxdZ8L7ERNgDZXlKh
p4592
sVThe Letter Black
p4593
V7AH2bTtNIOYu24O3NuFxhG
p4594
sVTamela Mann
p4595
V6ZyV955Ypf3JAKInn1a0dt
p4596
sVBane
p4597
V2Fjvft2Z56VrVjmYE5TkEi
p4598
sVTony Bennett
p4599
V2lolQgalUvZDfp5vvVtTYV
p4600
sVThe Rides
p4601
V0dtBKLgPO5xCZqyvqNUjXW
p4602
sVGlasvegas
p4603
V478peoEkoKPsTgRiVzkvPl
p4604
sVCimorelli
p4605
V4988ULVP4X7nco6pLh1PA2
p4606
sVNever Shout Never
p4607
V5pUmXBIQtqpvdV1HAy2xYC
p4608
sVThree Dog Night
p4609
V4FAEZeJcsYYBkNq2D3KGTV
p4610
sVRend Collective
p4611
V11Y54BxlxC3UIAUkU2eadQ
p4612
sVTaeYang
p4613
V6udveWUgX4vu75FF0DTrXV
p4614
sVHatebreed
p4615
V17Mb968quDHpjCkIyq30QV
p4616
sVSnoop Dogg & Wiz Khalifa
p4617
V3rnsFvKusYivCTnK2fpwbu
p4618
sVDio
p4619
V4CYeVo5iZbtYGBN4Isc3n6
p4620
sVTortoise
p4621
V3WggbHDpj4rPKbL97zG5MQ
p4622
sVLionel Richie
p4623
V3gMaNLQm7D9MornNILzdSl
p4624
sVBuilding 429
p4625
V6Le23Aqwqi28fQUzfv4dHY
p4626
sVG-Dragon
p4627
V30b9WulBM8sFuBo17nNq9c
p4628
sVRaeLynn
p4629
V5dMnvpYEfXvSexjwnSRH5n
p4630
sVAir
p4631
V1P6U1dCeHxPui5pIrGmndZ
p4632
sVRival Sons
p4633
V356c8AN5YWKvz86B4Sb1yf
p4634
sVMotionless In White
p4635
V6MwPCCR936cYfM1dLsGVnl
p4636
sVHeffron Drive
p4637
V5xQdu6vJP6leBN2eZTxIci
p4638
sVCrystal Bowersox
p4639
V2IgfvpRnRRvieMOYwvI7Rr
p4640
sVAni DiFranco
p4641
V0AiTwNtYX8m4uhfU7rJ8RD
p4642
sVDave Barnes
p4643
V7hbH1qupmU6HxVBjWJItlq
p4644
sVAmerie
p4645
V08rMCq2ek1YjdDBsCPVH2s
p4646
sVThe All-American Rejects
p4647
V3vAaWhdBR38Q02ohXqaNHT
p4648
sVDavid Bazan
p4649
V5vwWDRwjVCilY1uYVfJfLL
p4650
sVFranz Ferdinand
p4651
V0XNa1vTidXlvJ2gHSsRi4A
p4652
sVHollywood Undead
p4653
V0CEFCo8288kQU7mJi25s6E
p4654
sVDawes
p4655
V0CDUUM6KNRvgBFYIbWxJwV
p4656
sVBlack Label Society
p4657
V0zfT626RwO6zN3RDYeRit5
p4658
sVSocial Distortion
p4659
V16nn7kCHPWIB6uK09GQCNI
p4660
sVRobyn
p4661
V6UE7nl9mha6s8z0wFQFIZ2
p4662
sVJames Morrison
p4663
V3LpLGlgRS1IKPPwElnpW35
p4664
sVImagine Dragons
p4665
V53XhwfbYqKCa1cC15pYq2q
p4666
sVDeep Purple
p4667
V568ZhdwyaiCyOGJRtNYhWf
p4668
sVDaft Punk
p4669
V4tZwfgrHOc3mvqYlEYSvVi
p4670
sVJoshua Ledet
p4671
V6aOLc2s5ULYBhMvUXBDuAr
p4672
sVMeg & Dia
p4673
V77YbJ4a9IlKX18ck6qoot1
p4674
sVHunter Hayes
p4675
V7H6dkUChT5EoOQtUVMg4cN
p4676
sVJason Crabb
p4677
V61SFRZAmfyJhcffwR2Ijuq
p4678
sVBuilt To Spill
p4679
V3kbBWco9PZ5eSQsNScwG6U
p4680
sVDashboard Confessional
p4681
V4ERtgeBbWRkFzIz6LaFCeY
p4682
sVJustin Timberlake
p4683
V31TPClRtHm23RisEBtV3X7
p4684
sVAmos Lee
p4685
V0QrowybipCKUDnq5y10PD2
p4686
sVLil Durk
p4687
V3hcs9uc56yIGFCSy9leWe7
p4688
sVDamon Albarn
p4689
V0O98jlCaPzvsoei6U5jfEL
p4690
sVBobby Shmurda
p4691
V34Y0ldeyUv7jBvukWOGASO
p4692
sVDamien Jurado
p4693
V79JJCxCCfJ8HufX6w8q2k4
p4694
sVBenjamin Gibbard
p4695
V4CvZd3qzC2HbLxAoAEBRIL
p4696
sVBonnie Raitt
p4697
V4KDyYWR7IpxZ7xrdYbKrqY
p4698
sVYou+Me
p4699
V0WO1Yn4pcC30HOKLD68JKm
p4700
sVCher Lloyd
p4701
V4m4SfDVbF5wxrwEjDKgi4k
p4702
sVThe Amity Affliction
p4703
V6kNKUYGn6VNGsRoXmyoDPK
p4704
sVSoulfly
p4705
V6159IBm5gLPwG4BcJXseXc
p4706
sVBosnian Rainbows
p4707
V26sni4GjXXHoWkWrBkyZnO
p4708
sVHollie Cavanagh
p4709
V2ahhgM6t2apu5vuqZgtx2B
p4710
sVWu-Block
p4711
V1Tauz2QusnM8J5ZtD6JDY0
p4712
sVSons Of Sylvia
p4713
V3fNfzmI5XfHHVHtS76dvMj
p4714
sVOneRepublic
p4715
V5Pwc4xIPtQLFEnJriah9YJ
p4716
sVCoffey Anderson
p4717
V29YJnMJ7MoLKPM04siMnP5
p4718
sV3 Winans Brothers
p4719
V7xbASS1kd4OAMYms7T3uo3
p4720
sVShooter Jennings
p4721
V0F6yRPhUj9fUzWn0z3ysyr
p4722
sVLed Zeppelin
p4723
V36QJpDe2go2KgaRleHCDTp
p4724
sVHighly Suspect
p4725
V2pqd3HsfsvcBGtHvPOg6eg
p4726
sVRita Wilson
p4727
V60LfX8q7jliswygVxBPIL4
p4728
sVCascada
p4729
V0N0d3kjwdY2h7UVuTdJGfp
p4730
sVDesaparecidos
p4731
V1H8myCcRyST1S5CcXNHiYM
p4732
sVPlacebo
p4733
V6RZUqkomCmb8zCRqc9eznB
p4734
sVTenacious D
p4735
V1XpDYCrUJnvCo9Ez6yeMWh
p4736
sVChet Faker
p4737
V2Q0MyH5YMI5HPQjFjlq5g3
p4738
sVEmpire Of The Sun
p4739
V67hb7towEyKvt5Z8Bx306c
p4740
sVBeth Hart
p4741
V30TrHDLNCKQVTYWOn9QqOC
p4742
sVPink Floyd
p4743
V0k17h0D3J5VfsdmQ1iZtE9
p4744
sVPatti Smith
p4745
V0vYkHhJ48Bs3jWcvZXvOrP
p4746
sVDavid Guetta
p4747
V1Cs0zKBU1kc0i8ypK3B9ai
p4748
sVNicole Atkins
p4749
V4ab2tQaaTr2TnairelOwvO
p4750
sVReba
p4751
V0I2iJ4qXhWez7QzSRd2UX6
p4752
sVRoberta Flack
p4753
V0W498bDDNlJIrYMKXdpLHA
p4754
sVRenee Olstead
p4755
V19B0pJt4UEl3fUijGTRzxB
p4756
sVBeady Eye
p4757
V5yBDILLJyNFAjFpECkk7ys
p4758
sVBoA
p4759
V4muJrGMndyYWqZtfk8OWy4
p4760
sVTech N9ne Collabos
p4761
V4UOlRVifrFdQHW9qu5ep8t
p4762
sVGrizzly Bear
p4763
V2Jv5eshHtLycR6R8KQCdc4
p4764
sVKingdom Of Sorrow
p4765
V5ambWTB9ZagMlvz23f5pEJ
p4766
sVTrent Reznor And Atticus Ross
p4767
V6cadOIa5DTh6a5mGo5r4bh
p4768
sVLenny Kravitz
p4769
V5gznATMVO85ZcLTkE9ULU7
p4770
sVWithin The Ruins
p4771
V5mscNJ6lE9Kj7tWv4iCk7y
p4772
sVJodeci
p4773
V1eNkUXHPaXyuyC8NAgzykK
p4774
sVDepeche Mode
p4775
V762310PdDnwsDxAQxzQkfX
p4776
sVRob Zombie
p4777
V3HVdAiMNjYrQIKlOGxoGh5
p4778
sVSidewalk Prophets
p4779
V2SMYoM2Kbcj6rI6U3FRc4U
p4780
sVSylvan Esso
p4781
V39vA9YljbnOApXKniLWBZv
p4782
sVRa Ra Riot
p4783
V6FIrstf3kHEg3zBOyLpvxD
p4784
sVBooker T. Jones
p4785
V6J3pUmw6KX1LqyLQkP0k9U
p4786
sVPassion Pit
p4787
V7gjAu1qr5C2grXeQFFOGeh
p4788
sVWe Are Augustines
p4789
V7jHIKPFomJIDg8EQd17T8d
p4790
sVK. Michelle
p4791
V2retT7MFwHDVTeGKDdybEx
p4792
sVInfant Sorrow
p4793
V68A99CTUDGoBNFycKJCmAJ
p4794
sVRBD
p4795
V3cAXBnhWevPJ5ltDrkD7XV
p4796
sVTravis Tritt
p4797
V2M4Yt7oKGoYd0wqU44k4i2
p4798
sVThe Gracious Few
p4799
V5kAK7GQf1BwdOcd0jxohEV
p4800
sVBlondie
p4801
V4tpUmLEVLCGFr93o8hFFIB
p4802
sVWild Nothing
p4803
V6NrkINd80slV25wkBu9mEB
p4804
sVCes Cru
p4805
V7jNpkZ55HFuYxJo6q1qawG
p4806
sVWrekonize
p4807
V29BXWpk8CfbQ4DJW6B6U4E
p4808
sVSOHN
p4809
V6XZYAWJLL8UIbxAqjKj3cg
p4810
sVVan Cliburn
p4811
V1RMjtNqKOM6V36EngDqEBw
p4812
sVRonnie Dunn
p4813
V1iLuTmIgxCEiEllDSWkeIy
p4814
sVThe Format
p4815
V3ZJC8cLts8Q8s8JbNJKsLf
p4816
sVGet Scared
p4817
V5r9uIJCoquVtEkCkvcn8Ez
p4818
sVChris August
p4819
V5ThfTvfTCfzJAEvtEI2Jf8
p4820
sVPerfume Genius
p4821
V2ueoLVCXQ948OfhVvAy3Nn
p4822
sVFaith No More
p4823
V6GbCJZrI318Ybm8mY36Of5
p4824
sVThe Books
p4825
V4UvhuGdFf75Cfan7lEU1J1
p4826
sVFilter
p4827
V01WjpKiWVNurV5hjIadB8C
p4828
sVMoby
p4829
V3OsRAKCvk37zwYcnzRf5XF
p4830
sVPurity Ring
p4831
V1TtJ8j22Roc24e2Jx3OcU4
p4832
sVSon Volt
p4833
V7AhDVqsNA5q46WKsRPXvoe
p4834
sVMetro Station
p4835
V7vXwfZyDp3spzIVNXDaTPN
p4836
sVPatty Loveless
p4837
V6SFUC6ORDCIBqPssCBpeHT
p4838
sVThe Sword
p4839
V0q32a3GRCjDxS4EIrC7YVY
p4840
sVCradle Of Filth
p4841
V0NTSMFFapnyZfvmCwzcYPd
p4842
sVThe Pains Of Being Pure At Heart
p4843
V3zmmBJseZelpVEHj8S6Dek
p4844
sVStevie Wonder
p4845
V7guDJrEfX3qb6FEbdPA5qi
p4846
sVMartina McBride
p4847
V3P33qFNGBVXl86yQYWspFj
p4848
sVEyes Set To Kill
p4849
V7omnn7IRrrxdMwSwchVxNP
p4850
sVBlack Veil Brides
p4851
V6O7MpKrY91vlCd4Osi6XKs
p4852
sVBenedictines Of Mary, Queen Of Apostles
p4853
V4o79bJJ2tBszgEDEvLhB2L
p4854
sVDamien
p4855
V3lewMblgvY6pyDMnYoEj4D
p4856
sVMake Me Famous
p4857
V3B2zav2zeToujHfMTa7ZB0
p4858
sVJeff LaBar
p4859
V0OFcHXvpGaSi5F6L8VPWd3
p4860
sVLoreena McKennitt
p4861
V1JdeDdujDbS6ZeSlkXqx3a
p4862
sVRL Grime
p4863
V5eIbEEQnDM8yuDVB0bimSP
p4864
sVAs Tall As Lions
p4865
V1F1IdqOCO4A9kBrQihBaOI
p4866
sVUnderworld
p4867
V1PXHzxRDiLnjqNrRn2Xbsa
p4868
sVBeBe Winans
p4869
V6D9xBdOOyGHqOam9OShAWl
p4870
sVPatty Griffin
p4871
V7tNLRmiAN8hpmFrbIHiHsy
p4872
sVHuey Mack
p4873
V5l5JD2LJPnIoVeco82Tk4q
p4874
sVDas Racist
p4875
V4iqAeIP1ynbt71G0Oi8VIt
p4876
sVNick Jonas
p4877
V4Rxn7Im3LGfyRkY2FlHhWi
p4878
sVVanessa Williams
p4879
V75L9s8KVrhCNtBUkZFnDFW
p4880
sVKelsea Ballerini
p4881
V3RqBeV12Tt7A8xH3zBDDUF
p4882
sVJackyl
p4883
V3jdirYL01245TvAH39GfM6
p4884
sVA$AP Rocky
p4885
V13ubrt8QOOCPljQ2FL1Kca
p4886
sVThe Dangerous Summer
p4887
V0iMnpaEHXkgMT956CmP1kj
p4888
sVJohn Carpenter
p4889
V0hxQtmgWiPtEsDPeIuKxXq
p4890
sVRob Bailey & The Hustle Standard
p4891
V70eNABm9r2VXOGYW4r209H
p4892
sVOwl City
p4893
V07QEuhtrNmmZ0zEcqE9SF6
p4894
sVLeAnn Rimes
p4895
V2d3VHzlOEwXvmBdS4pzOPL
p4896
sVDinosaur Jr.
p4897
V267VY6GX5LyU5c9M85ECZQ
p4898
sVW.L.A.K.
p4899
V5KE9XNIzb9P970SJ9PKOGm
p4900
sVYeasayer
p4901
V04HvbIwBccFmRie5ATX4ft
p4902
sVHail Mary Mallon
p4903
V7EKqpEerzxJ1rOu1gRNMJa
p4904
sVCody Johnson
p4905
V6zLBxLdl60ekBLpawtT63I
p4906
sVJonathan McReynolds
p4907
V5ItTHwcEtFh6DEOBheMub9
p4908
sVSchool Of Seven Bells
p4909
V1mBdei7fcRpbUEYHgsQN9H
p4910
sVNine Inch Nails
p4911
V0X380XXQSNBYuleKzav5UO
p4912
sVBroken Bells
p4913
V6dgwEwnK0YtDfS9XhRwBTG
p4914
sVDuelo
p4915
V0nnp7oJpY2J6yZOqtdKaWq
p4916
sVTanlines
p4917
V7pW390CJdmhakvtcGZIqGP
p4918
sVDrake Bell
p4919
V03ilIKH0i08IxmjKcn63ne
p4920
sVEllie Goulding
p4921
V0X2BH1fck6amBIoJhDVmmJ
p4922
sVCase
p4923
V5aEWnrN8h3MhuFUPRfaVuy
p4924
sVGood Old War
p4925
V33szNKNcVX8x0jl8X7hxHL
p4926
sVSean Kingston
p4927
V6S0dmVVn4udvppDhZIWxCr
p4928
sVChrissie Hynde
p4929
V2ozLlEZTdSV3pjHgWwZMsi
p4930
sVParmalee
p4931
V4TshyQDihSYXSWqvclXl3I
p4932
sVMudvayne
p4933
V2Pfv2w8a20xzC7Dr7QXRqM
p4934
sVThe Cab
p4935
V2C2sVVXanbOpymYBMpsi89
p4936
sVThe Who
p4937
V67ea9eGLXYMsO2eYQRui3w
p4938
sVMusiq Soulchild
p4939
V3UVRliakQfa1pMWIsNuiZ8
p4940
sVGeorge Benson
p4941
V4N8BwYTEC6XqykGvXXlmfv
p4942
sVJoe Budden
p4943
V1SAugjIcuwNPKS4urSB7A6
p4944
sVJ Dilla
p4945
V0IVcLMMbm05VIjnzPkGCyp
p4946
sVDwight Yoakam
p4947
V2sxmKe3CUrWnx7eoXMhOlW
p4948
sVStyx
p4949
V4salDzkGmfycRqNUbyBphh
p4950
sVLos Inquietos del Norte
p4951
V0pgvlX0BkfmeirXTDiNmya
p4952
sVShakey Graves
p4953
V1fZpYWNWdL5Z3wrDtISFUH
p4954
sVNew Years Day
p4955
V7IEyUxk8jyEVz9Zm9H8bfg
p4956
sVPVRIS
p4957
V6oFs3qk4VepIVFdoD4jmsy
p4958
sVAccept
p4959
V3JDIAtVrJdQ7GFOX26LYpv
p4960
sVIngrid Michaelson
p4961
V2vm8GdHyrJh2O2MfbQFYG0
p4962
sVBlack Violin
p4963
V4zeHJ3kiJyjYXlIOcG4MA7
p4964
sVColony House
p4965
V6R664N4cEza3eORSqKSgO4
p4966
sVIggy Azalea
p4967
V5yG7ZAZafVaAlMTeBybKAL
p4968
sVJimmy Needham
p4969
V4yMGs8CtlMVF7RV2XU539m
p4970
sVCapital Cities
p4971
V4gwpcMTbLWtBUlOijbVpuu
p4972
sVMIKA
p4973
V5MmVJVhhYKQ86izuGHzJYA
p4974
sVKiller Be Killed
p4975
V4JNF6YOUi69O4zAdwQVGLY
p4976
sVBob Marley & The Wailers
p4977
V2QsynagSdAqZj3U9HgDzjD
p4978
sVThe Glitch Mob
p4979
V3a9qv6NLHnsVxJUtKOMHvD
p4980
sVEmarosa
p4981
V68tKVjVvcqUfKFFLr2j0Ek
p4982
sVJoss Stone
p4983
V7bvcQXJHkFiN1ppIN3q4fi
p4984
sVThe Weeknd
p4985
V1Xyo4u8uXC1ZmMpatF05PJ
p4986
sVCanton Jones
p4987
V3nzEXHMRFWTw4zt3pVRv6V
p4988
sVRay LaMontagne
p4989
V6DoH7ywD5BcQvjloe9OcIj
p4990
sVCindy Cruse Ratcliff
p4991
V12uEM3Q5zL2edaX87DyqQn
p4992
sVMeghan Linsey
p4993
V5CoW8VGpf9la64TUDhnkVn
p4994
sVSeether
p4995
V6B5c4sch27tWHAGdarpPaW
p4996
sVThe Wonder Years
p4997
V0nq64XZMWV1s7XHXIkdH7K
p4998
sVAlacranes Musical
p4999
V2aZtzjAzD8fq3OhZ9egqda
p5000
sVAtoms For Peace
p5001
V7tA9Eeeb68kkiG9Nrvuzmi
p5002
sVG-Eazy
p5003
V02kJSzxNuaWGqwubyUba0Z
p5004
sVRX Bandits
p5005
V47bGK00zHXcGlUWfrE0dvi
p5006
sVThe Red Jumpsuit Apparatus
p5007
V1SImpQO0GbjRgvlwCcCtFo
p5008
sVRyan Star
p5009
V01LfDhfF9mkpmEwRalZCmO
p5010
sVEminem
p5011
V7dGJo4pcD2V6oG8kP0tJRR
p5012
sVSleigh Bells
p5013
V59pWgeY26Q6yJy37QvJflh
p5014
sVEscape The Fate
p5015
V5ojhEavq6altxW8fWIlLum
p5016
sVMKTO
p5017
V2l35CQqtYRh3d8ZIiBep4v
p5018
sVDiplo
p5019
V5fMUXHkw8R8eOP2RNVYEZX
p5020
sVLucy Hale
p5021
V4gWAItIMhYCdD82T8tvv3T
p5022
sVDarius Rucker
p5023
V7FY5V3XMwlNBPitEjXowHQ
p5024
sV2AM Club
p5025
V1Sjs7s2hvAakgayaa0f34j
p5026
sVWynonna
p5027
V4yiXkMbxDIZ3jgEG89NSC1
p5028
sVRascal Flatts
p5029
V0a1gHP0HAqALbEyxaD5Ngn
p5030
sVJennifer Knapp
p5031
V2yAjgPqGeURdgCHPzuDeYi
p5032
sVWovenwar
p5033
V5ex0EevtawD37swNbgvjQ6
p5034
sVAndrew McMahon
p5035
V2YgTJGfaZQQRq2SKayqOsa
p5036
sVTriptykon
p5037
V37fG1EQuwb6zBHyFYUGfj8
p5038
sVBen Harper And Relentless7
p5039
V1rvRbKEVG3blb8mbUlo8xR
p5040
sVThree Days Grace
p5041
V2xiIXseIJcq3nG7C8fHeBj
p5042
sVThe Beatles
p5043
V3WrFJ7ztbogyGnTHbHJFl2
p5044
sVLos Tigres Del Norte
p5045
V3hYtANQYrE6pd2PbtEyTIy
p5046
sVAl Green
p5047
V3dkbV4qihUeMsqN4vBGg93
p5048
sVClean Bandit
p5049
V6MDME20pz9RveH9rEXvrOM
p5050
sVAriana Grande
p5051
V66CXWjxzNUsdJxJ2JdwvnR
p5052
sVJohn Hiatt
p5053
V4Sld5LOPbAm1QSq9U32fFV
p5054
sVElbow
p5055
V0TJB3EE2efClsYIDQ8V2Jk
p5056
sVAssJack
p5057
V4HNtkAKKMHmyovrcBJkNb9
p5058
sVGlenn Frey
p5059
V3vMWY1bUrmYoSoEWLiQWOZ
p5060
sVIsrael Houghton
p5061
V7pUnaNwiKa3p27L1EwB4X6
p5062
sVCast Recording
p5063
V4jFGAMuV1Uy8xu49rozVUg
p5064
sVLos Lonely Boys
p5065
V4aSEmLLxLX9wR5aLMllOKj
p5066
sVDrive-By Truckers
p5067
V1rXr1ZnvbRoYBaedIl9v4v
p5068
sVYelaWolf
p5069
V68DWke2VjdDmA75aJX5C57
p5070
sVDaniel Tosh
p5071
V2RQsqlGDunlzpIEm43kSlM
p5072
sVAugust Alsina
p5073
V19Fi1Rj7kk8kyiwxpXy3yM
p5074
sVHillsong Young & Free
p5075
V7m4gF38CPATtHrk5HS42WZ
p5076
sVFoxygen
p5077
V55LHFEtIplWhsfyWZUwkf4
p5078
sVJames Durbin
p5079
V3YHpeM8l5FGcYTb1EfXmzB
p5080
sVTanya Tucker
p5081
V7dmeVSH4lJqxXU7C87dKIB
p5082
sVSlim Thug
p5083
V0st5vgzw9XkH5ALJiUM1lE
p5084
sVMatt Morris
p5085
V4mxcvSfLL4zlIEHNHbxeMl
p5086
sVnewsboys
p5087
V1SZMaiNHfdUuU0qZKZ6y62
p5088
sVArjona
p5089
V1e9EFM4BbGTwtNyf5trgTz
p5090
sVNathan East
p5091
V5XTyy46AbpxIhvs38nQekJ
p5092
sVLove And Death
p5093
V4nrzg6bzMCRGsdQ5eD4d19
p5094
sVOne Less Reason
p5095
V60tc2v0OZXPmGhRCcVrSqM
p5096
sVAlabama Shakes
p5097
V16GcWuvvybAoaHr0NqT8Eh
p5098
sVBoyz II Men
p5099
V6O74knDqdv3XaWtkII7Xjp
p5100
sVBoDeans
p5101
V2D2qwEatKbBSKhBCfP6lyn
p5102
sV50 Cent
p5103
V3q7HBObVc0L8jNeTe5Gofh
p5104
sVBig K.R.I.T.
p5105
V0CKa42Jqrc9fSFbDjePaXP
p5106
sVCharlie Zaa
p5107
V1KfBKoozFugeT1PBkz33xl
p5108
sVRick Braun
p5109
V4ThkLup6LmqCUuHuG434zZ
p5110
sVThe National
p5111
V2cCUtGK9sDU2EoElnk0GNB
p5112
sVTinashe
p5113
V0NIIxcxNHmOoyBx03SfTCD
p5114
sVDean Brody
p5115
V0ryF1Gy87xVCOF0Jb666ak
p5116
sVCattle Decapitation
p5117
V67ZMMtA88DDO0gTuRrzGjn
p5118
sVThe Dead Weather
p5119
V4AZab8zo2nTYd7ORDmQu0V
p5120
sVHayes Carll
p5121
V6UWifcscEdbjPgmbevBxZV
p5122
sVDown
p5123
V1m0B9ak05G0jqDY4ACLhQu
p5124
sVCamera Obscura
p5125
V5gInJ5P5gQnOKPM3SUEVFt
p5126
sVBody Count
p5127
V5KCph1z3jaSwhtwPzoYp6i
p5128
sVZacardi Cortez
p5129
V1e5OohAPdgqCeMq3eegvqp
p5130
sVVince Gill & Paul Franklin
p5131
V2cQQRjA473vS1OrCKN6rGZ
p5132
sVRhett Walker Band
p5133
V4ImxhwjNOz0es0voxGHCoP
p5134
sVLiving Colour
p5135
V6Uhp7WA6sjm5ZL6Xz561de
p5136
sVThe Cure
p5137
V7bu3H8JO7d0UbMoVzbo70s
p5138
sVWilliam McDowell
p5139
V6PTGRlwNbg36Mu4boWlixN
p5140
sVSnow Patrol
p5141
V3rIZMv9rysU7JkLzEaC5Jp
p5142
sVBilal
p5143
V4jCbgl5Dmt3uOh8WRQfpPs
p5144
sVJ.J. Hairston & Youthful Praise
p5145
V2PiKaajF8T1X6KGgvYlxOD
p5146
sVRunner Runner
p5147
V2VLqBIUWKxrOVYVflf5pbW
p5148
sVJim Jones
p5149
V6AMa1VFQ7qCi61tCRtVWXe
p5150
sV4TROOPS
p5151
V11YRCHvPNTcAMCdRY2zO0o
p5152
sVThe Human Abstract
p5153
V2SDGIFzEh9xmE5zDKcMRkj
p5154
sVDiscovery
p5155
V1fg65Qx6tRt0aXBfz5I4w5
p5156
sVMetallica
p5157
V2ye2Wgw4gimLv2eAKyk1NB
p5158
sVNoisettes
p5159
V6oX4tx055oEFYM3ahDTyOD
p5160
sVMarty
p5161
V61nK3vh5LGYlxIdYcqvCIf
p5162
sVPet Shop Boys
p5163
V2ycnb8Er79LoH2AsR5ldjh
p5164
sVIggy Pop
p5165
V33EUXrFKGjpUSGacqEHhU4
p5166
sVBehemoth
p5167
V1MK0sGeyTNkbefYGj673e9
p5168
sVRebecca St. James
p5169
V1SaELUYn7deVoQ9kGDGUD9
p5170
sVWolfmother
p5171
V3yEnArbNHyTCwMRvD9SBy4
p5172
sVLeela James
p5173
V5sennRot4Ls82wfspEQuf2
p5174
sVNickelback
p5175
V6deZN1bslXzeGvOLaLMOIF
p5176
sVHawthorne Heights
p5177
V126FigDBtqwS2YsOYMTPQe
p5178
sVVolumes
p5179
V1DgmdsnwOexqTH8ohPCFAU
p5180
sVPitbull
p5181
V0TnOYISbd1XYRBk9myaseg
p5182
sVDJ Mustard
p5183
V0YinUQ50QDB7ZxSCLyQ40k
p5184
sVJay Z
p5185
V3nFkdlSjzX9mRTtwJOzDYB
p5186
sVGerald Levert
p5187
V7BLOa6FxCbMnowidkQfLIA
p5188
sVNickel Creek
p5189
V3bcLBxvaI7GsBzGp3WHnwQ
p5190
sVDirty Loops
p5191
V5Apl0wL4OwNUDYkx69rMDQ
p5192
sVBen Folds/Nick Hornby
p5193
V35mdRDPA1ONJfxJCKw4Xnq
p5194
sVMisty Edwards
p5195
V1D0eJV6n9INYqsRVhFoLZI
p5196
sVThe Band
p5197
V4vpDg7Y7fU982Ds30zawDA
p5198
sVImmortal
p5199
V2mVTkiwfm4ic6DnHpmFq8K
p5200
sVRingo Starr
p5201
V6DbJi8AcN5ANdtvJcwBSw8
p5202
sVNate Ruess
p5203
V1qUjOF5fzrpoNycD36b2jZ
p5204
sVHow To Dress Well
p5205
V4jLcgJjDGmW0HmvbSf6lEI
p5206
sVSum 41
p5207
V0qT79UgT5tY4yudH9VfsdT
p5208
sVWatsky
p5209
V3mJ9GlkLzj8Ka7Z7EQaCMi
p5210
sVMindless Self Indulgence
p5211
V5R5MLOQbI4lb7GHYioPqoN
p5212
sVDanity Kane
p5213
V3FD9VAd0ppjmKbfxF4LzUh
p5214
sVSawyer Fredericks
p5215
V3GaRKzVcjJv5cIL8CmRAHn
p5216
sVCopeland
p5217
V31HpswGOiF0Mc2wm11sIoN
p5218
sVEazy-E
p5219
V7B4hKK0S9QYnaoqa9OuwgX
p5220
sVTyler Ward
p5221
V5Hc9oDGvStNGmnj44m8sHg
p5222
sVRich Robinson
p5223
V7lEokLkF9CWjEBogNWcV69
p5224
sVBattlecross
p5225
V5yimluzyt2ZhLaha1KX1nn
p5226
sVBridgit Mendler
p5227
V4VhL8KLjVso4vLfOLVViTb
p5228
sVAlex Faith
p5229
V0Y2tgcJdamwlQDZ6HwecWb
p5230
sVAnnie Lennox
p5231
V5MspMQqdVbdwP6ax3GXqum
p5232
sVAndy Mineo
p5233
V1TMrnxBwZfmfRxsGzkNIHw
p5234
sVHAIM
p5235
V4Ui2kfOqGujY81UcPrb5KE
p5236
sVMy Morning Jacket
p5237
V43O3c6wewpzPKwVaGEEtBM
p5238
sVCarlos Vives
p5239
V4vhNDa5ycK0ST968ek7kRr
p5240
sVThe Dear Hunter
p5241
V51lE580QM13Anmb3mK2j1e
p5242
sVJoel Ortiz
p5243
V2G8sL9JeQbURGBF4WIriqG
p5244
sVSkinny Puppy
p5245
V5Mu0EMEsUIVE132pNMywns
p5246
sVJohn P. Kee And New Life
p5247
V3stIb2kn4FhTQj8fExMUVs
p5248
sVElectrik Red
p5249
V6lu1azxkCc8fQMYIhyQn8J
p5250
sVKorn
p5251
V3RNrq3jvMZxD9ZyoOZbQOD
p5252
sVThin Lizzy
p5253
V6biWAmrHyiMkX49LkycGqQ
p5254
sVTrivium
p5255
V278ZYwGhdK6QTzE3MFePnP
p5256
sVBlack Sabbath
p5257
V5M52tdBnJaKSvOpJGz8mfZ
p5258
sVBlack Dub
p5259
V5pzh4KHxFCIbc0ojwfM7Q0
p5260
sVOriginal Broadway Cast Recording
p5261
V43qpnCSCXefs3GzxOrWzdz
p5262
sVAkon
p5263
V0z4gvV4rjIZ9wHck67ucSV
p5264
sVThere For Tomorrow
p5265
V0lYXa6aa87Tz8Jzv1nW4HM
p5266
sVMontgomery Gentry
p5267
V3bGXaFVQLASmDMdjjeJr8a
p5268
sVJon Pardi
p5269
V4MoAOfV4ROWofLG3a3hhBN
p5270
sVJames Vincent McMorrow
p5271
V7FDlvgcodNfC0IBdWevl4u
p5272
sVWhite Lies
p5273
V6ssXMmc5EOUrauZxirM910
p5274
sVTNGHT
p5275
V40jiZfvsiAi1aIarh5Z3d3
p5276
sVThe Ready Set
p5277
V2eRJjYEaWyGZbOBGYFLBoC
p5278
sVTeyana Taylor
p5279
V4ULO7IGI3M2bo0Ap7B9h8a
p5280
sVThe Postal Service
p5281
V5yV1qdnmxyIYiSFB02wpDj
p5282
sVWoodkid
p5283
V44TGR1CzjKBxSHsSEy7bi9
p5284
sVFlorence + The Machine
p5285
V1moxjboGR7GNWYIMWsRjgG
p5286
sVLagwagon
p5287
V66riGCPfih1Xqk81dDvpvf
p5288
sVBenjamin Booker
p5289
V7mZgBMpvaBziYQfc9TbJH5
p5290
sVJoey Alexander
p5291
V0FcNSKwWZJb98ry9M2qEII
p5292
sVLamb Of God
p5293
V3JFsVIxOn7STeilPICkkB2
p5294
sVGregory Alan Isakov
p5295
V5sXaGoRLSpd7VeyZrLkKwt
p5296
sVGhostface Killah
p5297
V6FD0unjzGQhX3b6eMccMJe
p5298
sVHurray For The Riff Raff
p5299
V2xLEV2jDreAOcpJXFNoXyt
p5300
sVMicky & The Motorcars
p5301
V7AOnWmJMO4J13SlaNq5Zj9
p5302
sVUpon A Burning Body
p5303
V1bPBx2qbpWzEoLujeHC3G7
p5304
sVZee Avi
p5305
V6zGcYBjlNOMSVVrl7ZoGsH
p5306
sVJillian Edwards
p5307
V6ctgu4FFlnNhMgrKiIzCxp
p5308
sVBlack Rebel Motorcycle Club
p5309
V1tpXaFf2F55E7kVJON4j4G
p5310
sVChris Mann
p5311
V7rPpyefeTtPZB40uiXMxgS
p5312
sVRoyce Da 5'9"
p5313
V6DVipHzYsPlIoA0DW8Gmns
p5314
sVWe As Human
p5315
V6FFTGpuvFDztqTz4t1Hqy9
p5316
sVAventura
p5317
V1qto4hHid1P71emI6Fd8xi
p5318
sVKris Allen
p5319
V2zwHaEmXxX6DTv4i8ajNCM
p5320
sVThe Gossip
p5321
V2wUnt2CzuPOw8rFMxWBeGM
p5322
sVDeitrick Haddon
p5323
V7tlQrRh6jNY1c95poJvBe9
p5324
sVKanye West
p5325
V5K4W6rqBFWDnAN6FQUkS6x
p5326
sVIndia.Arie
p5327
V7Gf3LSwa5hh8Cjo60WhVjC
p5328
sVWinger
p5329
V2qQeKHrQJHLLbvDAOSO874
p5330
sVTitle Fight
p5331
V2CnhqfjUG0qzsru0SMuhrk
p5332
sVPolica
p5333
V5AWNxKZ6SN6mg7zyoheFXV
p5334
sVThe Notorious B.I.G.
p5335
V5me0Irg2ANcsgc93uaYrpb
p5336
sVRiff Raff
p5337
V31IZdHrCZ5pRhLz4zBxN3o
p5338
sVSky Ferreira
p5339
V7pyhre5oEEFMqcgMEvJY7q
p5340
sVMadeon
p5341
V4pb4rqWSoGUgxm63xmJ8xc
p5342
sVDoe B
p5343
V7dFJWWaHc5Z8oQbIRgBcwQ
p5344
sVSugarland
p5345
V0hYxQe3AK5jBPCr5MumLHD
p5346
sVChromeo
p5347
V2mV8aJphiSHYJf43DxL7Gt
p5348
sVYG
p5349
V0A0FS04o6zMoto8OKPsDwY
p5350
sVAxewound
p5351
V7KYgLYR5cMtHHzQ9gRWN2y
p5352
sVDead Can Dance
p5353
V6sq7prp0tj9Abn89khmfja
p5354
sVLee Ann Womack
p5355
V738OS3zrCO782uDiUN9pet
p5356
sVPatrice O'Neal
p5357
V0QbGBnY8qUpzqAhGPKJmF2
p5358
sVThe Color Morale
p5359
V3QHJftSfNb6KIerLVsx7zn
p5360
sVGyptian
p5361
V2JX4h8xm0hNxCB0aNBWzyi
p5362
sVAfrojack
p5363
V4D75GcNG95ebPtNvoNVXhz
p5364
sVNEEDTOBREATHE
p5365
V610EjgFatGvVPtib97jQ8G
p5366
sVCasey Donahew Band
p5367
V2IgYtkgYVCTF2mWKxotLZ5
p5368
sVGrieves
p5369
V2ActkR0xU2ZiDhWYhijydE
p5370
sVJEFF The Brotherhood
p5371
V1yhtlCNnRgCNGnsy2K7mHm
p5372
sVSwollen Members
p5373
V30QbUq31PEXAT4QFYZyBAM
p5374
sVThis Wild Life
p5375
V3eoazmwspxeKFenMP1PQva
p5376
sVTaking Back Sunday
p5377
V24XtlMhEMNdi822vi0MhY1
p5378
sVGuster
p5379
V34XlPCFfB4vT7P1ekWq9Jc
p5380
sVFireflight
p5381
V5v6wlK6GCKVovWMbPqSHNy
p5382
sVPanda Bear
p5383
V1R84VlXnFFULOsWWV8IrCQ
p5384
sVRailroad Earth
p5385
V6ijT84fUReKCGYV3MjhB2y
p5386
sVHIM
p5387
V74aLweE8FHHf4yN5TWv1GM
p5388
sVThe Walls Group
p5389
V3UZQmKr3fkPDCdIRtdX1RV
p5390
sVEl-P
p5391
V57UnSUpae3SbRekxNa5Kgl
p5392
sVABK
p5393
V29TBMtWRrCcI2HQY6PqTFM
p5394
sVEmery
p5395
V4feAxLUxIU7G4KXhH0h2ni
p5396
sVSoulja Boy
p5397
V6GMYJwaziB4ekv1Y6wCDWS
p5398
sVGov't Mule
p5399
V5zoKOcTDI9EMOhGNaxL708
p5400
sVJethro Tull's Ian Anderson
p5401
V21tEeSZENhZFVFtm3kMRrR
p5402
sVLe'Andria Johnson
p5403
V5gpgMHIDzhdGccwJniIXrh
p5404
sVOdd Future
p5405
V5xpkLC1MxiPRiIJUDEzuVm
p5406
sVLaura Izibor
p5407
V1WKj0LfG2ZQXTszvdQ5yPK
p5408
sVArmy Of The Pharaohs
p5409
V13FswnDmTIttTpiK9PS0BI
p5410
sVMinus The Bear
p5411
V0YQBN02bmZvwGNrrWsg2sT
p5412
sVBlack Tide
p5413
V7wMYATkanaMX5FH4GMVZ4E
p5414
sVX Ambassadors
p5415
V3NPpFNZtSTHheNBaWC82rB
p5416
sVKristene DiMarco
p5417
V0uWNGisbRTdz6E5O3V3Sc8
p5418
sVDivine Heresy
p5419
V54qeKnz2E2jj0oU61dYk5B
p5420
sV2Cellos
p5421
V6Fi8CHfO8WGtu3yO8c2Mc4
p5422
sVVickie Winans
p5423
V3lRcuKNnP49qqc0AHfTTAR
p5424
sVArmored Saint
p5425
V4ug41UGuMZzlV2hJOrOqHN
p5426
sVKimbra
p5427
V6hk7Yq1DU9QcCCrz9uc0Ti
p5428
sVOne Direction
p5429
V4AK6F7OLvEQ5QYCBNiQWHq
p5430
sVLalah Hathaway
p5431
V0uNEy4544VZq2KOl7BsLuo
p5432
sVMadina Lake
p5433
V43QrUqvhiL71U9A9gJtAfA
p5434
sVLeslie West
p5435
V0ks4E3VJXDIRABtxz2IiBE
p5436
sVElle Varner
p5437
V7zmk5lkmCMVvfvwF3H8FWC
p5438
sVClap Your Hands Say Yeah
p5439
V1jSaZgaKHmgc7VTgML528r
p5440
sVSteve Harris
p5441
V1N94PtiwAkMVTUwLyrosXz
p5442
sVDavid Nail
p5443
V4DZGvSv2oMkBUnPz67E6z6
p5444
sVDonny & Marie
p5445
V0Rb2Xtgr9mtglK3HGh4vsX
p5446
sVFates Warning
p5447
V4S6URhg3PMKnCv9clR4ejE
p5448
sVMandisa
p5449
V0YPElKYjOD1sofFCtLdYj3
p5450
sVBlue October
p5451
V1TJbmc7jTpw78GKCiMpvDh
p5452
sVNick & Knight
p5453
V6GoUnnxRsQtfSLcL3JPtHT
p5454
sVTantric
p5455
V4tMZahYVKJdjbC1GHVtNnV
p5456
sVPentatonix
p5457
V26AHtbjWKiwYzsoGoUZq53
p5458
sVMelanie Martinez
p5459
V63yrD80RY3RNEM2YDpUpO8
p5460
sVBrantley Gilbert
p5461
V5q8HGNo0BjLWaTAhRtbwxa
p5462
sVErica Campbell
p5463
V46CCmeVLrgc6MnyVpVMOzp
p5464
sVYandel
p5465
V0eHQ9o50hj6ZDNBt6Ys1sD
p5466
sVSabaton
p5467
V3o2dn2O0FCVsWDFSh8qxgG
p5468
sVElvis Presley
p5469
V43ZHCT0cAZBISjO8DG9PnE
p5470
sVBeirut
p5471
V6pmxr66tMAePxzOLfjGNcX
p5472
sVSevendust
p5473
V35Uu85Pq33mK8x1jYqsHY2
p5474
sVJoanna Newsom
p5475
V4gn6f5jaOO75s0oF7ozqGG
p5476
sVDave Alvin & Phil Alvin
p5477
V0elQWchO3HSbmx0M9bupll
p5478
sVHerbie Hancock
p5479
V2ZvrvbQNrHKwjT7qfGFFUW
p5480
sVChris Stapleton
p5481
V4YLtscXsxbVgi031ovDDdh
p5482
sVLou Reed
p5483
V42TFhl7WlMRXiNqzSrnzPL
p5484
sVGreen Day
p5485
V7oPftvlwr6VrsViSDV7fJY
p5486
sVSteve Hare
p5487
V4v6LLoRcCS6BCNVWhtAYg4
p5488
sVThe Naked And Famous
p5489
V0oeUpvxWsC8bWS6SnpU8b9
p5490
sVDaya
p5491
V6Dd3NScHWwnW6obMFbl1BH
p5492
sVTweet
p5493
V6zDBeei6hHRiZdAJ6zoTCo
p5494
sVThe Strokes
p5495
V0epOFNiUfyON9EYx7Tpr6V
p5496
sVThe Horrible Crowes
p5497
V7AFLDtQad7jUjgvYfWRyUp
p5498
sVCam'Ron
p5499
V7iMvwE8qANp3aIfAGKEAwS
p5500
sVSafetySuit
p5501
V3V8Gdws52TzoL8WLZHvpzc
p5502
sVPharoahe Monch
p5503
V5DKuVtlpDH0agZQUFDy8O7
p5504
sVpureNRG
p5505
V60jmh6G01cpgusPW6By5RO
p5506
sVMike Posner
p5507
V2KsP6tYLJlTBvSUxnwlVWa
p5508
sVCam
p5509
V5WRElKaZsn1tGnrgmJVAeO
p5510
sVNew Hope Oahu
p5511
V4a9KWc1l3Ci1zBsmfpkmNA
p5512
sVLondon Grammar
p5513
V3Bd1cgCjtCI32PYvDC3ynO
p5514
sVCody Canada & The Departed
p5515
V0sNgjo2IC4YgJr6MF1bFS0
p5516
sVDru Hill
p5517
V1255GTUKNCLCTvH9ctD4cT
p5518
sVRuben Studdard
p5519
V0H0yrKDty3I7pPrNUSH3wW
p5520
sVCasting Crowns
p5521
V6eJqAWJdd8JhAN1pQGie4r
p5522
sVChayanne
p5523
V1JbemQ1fPt2YmSLjAFhPBv
p5524
sVKansas
p5525
V2hl0xAkS2AIRAu23TVMBG1
p5526
sVmatchbox twenty
p5527
V3Ngh2zDBRPEriyxQDAMKd1
p5528
sVIssues
p5529
V3zRstk92RGCVDyslSySNsm
p5530
sVVedera
p5531
V13s3CA5chKKPo7sXja8fLO
p5532
sVDondria
p5533
V4NgmPmKCSWm4kczsm6J3FO
p5534
sVRobert Glasper Experiment
p5535
V7vZ7qmfXiu114lY0qm7rOe
p5536
sVThe Downtown Fiction
p5537
V7MRDkEKtdsGcYn11A4qgUL
p5538
sVSteve Grand
p5539
V0oqk73d6vKVx8Ekz4onThW
p5540
sVMuse
p5541
V12Chz98pHFMPJEknJQMWvI
p5542
sVRegina Spektor
p5543
V3z6Gk257P9jNcZbBXJNX5i
p5544
sVKaren O
p5545
V6emHCSoB4tJxTVXakbrpPz
p5546
sVOFF!
p5547
V4fY9hRf8gHMOszNWFhR1wB
p5548
sVFabolous
p5549
V0YWxKQj2Go9CGHCp77UOyy
p5550
sVBryan & Katie Torwalt
p5551
V7bvAtcPT3evvSeHDyu2zBC
p5552
sVAlexis Spight
p5553
V60TmfPS3h98rLg7M2nTmlX
p5554
sVTito "El Bambino"
p5555
V5fJsY7afrbsyzJj9wdzJMh
p5556
sVRings Of Saturn
p5557
V67Zm35qXdPzYfl1c3M0toJ
p5558
sVMegadeth
p5559
V1Yox196W7bzVNZI7RBaPnf
p5560
sVShinedown
p5561
V70BYFdaZbEKbeauJ670ysI
p5562
sVDaddy Yankee
p5563
V4VMYDCV2IEDYJArk749S6m
p5564
sVJhene Aiko
p5565
V5ZS223C6JyBfXasXxrRqOk
p5566
sVCrystal Aikin
p5567
V5AfDeAE9DebBuxecThmRsf
p5568
sVLynyrd Skynyrd
p5569
V4MVyzYMgTwdP7Z49wAZHx0
p5570
sVChinx
p5571
V2DctCFD8X80VeY7WLC86PS
p5572
sVArt Of Dying
p5573
V28DlNBW2UlEVVgTuCcYtTe
p5574
sVLondon Symphony Orchestra
p5575
V5yxyJsFanEAuwSM5kOuZKc
p5576
sVNick Jonas & The Administration
p5577
V6dse9FDodKw65ZQoLjE5F1
p5578
sVChris Rene
p5579
V4ZDZLlxANNNTlQs6WJDgE1
p5580
sVBastille
p5581
V7EQ0qTo7fWT7DPxmxtSYEc
p5582
sVZZ Ward
p5583
V7aJSIsbI5wV8aFi2kkFfPi
p5584
sVHilary Duff
p5585
V2S9W9aSAd7e5mp8WqWxN2h
p5586
sVDonell Jones
p5587
V5KNqYrivNgVCHBssEUSu5B
p5588
sVJohnny Cash
p5589
V6kACVPfCOnqzgfEF5ryl0x
p5590
sVGwar
p5591
V3dnH7fdVm2X07MK6Fkbhbt
p5592
sVBad Meets Evil
p5593
V77IURH5NC56Jn09QHi76is
p5594
sVWakey!Wakey!
p5595
V6nwykPKe0s5K030p5lliIY
p5596
sVTheophilus London
p5597
V4EMtGVFvfCSrEmWaGV0roE
p5598
sVAustin Mahone
p5599
V04abdnqPQe2N4fjztDea6z
p5600
sVbwb
p5601
V3a6l5qcDjvTGpvBXmBYz3e
p5602
sVMiguel
p5603
V360IAlyVv4PCEVjgyMZrxK
p5604
sVGlass Cloud
p5605
V31FeV95p1uS4qVjd8yEHJf
p5606
sVYolanda Adams
p5607
V47opbYEKDjXnRk9uLscp11
p5608
sVDolly Parton
p5609
V32vWCbZh0xZ4o9gkz4PsEU
p5610
sVThe Smashing Pumpkins
p5611
V40Yq4vzPs9VNUrIBG5Jr2i
p5612
sVLacuna Coil
p5613
V4OAddazJM576euUnFSvXSL
p5614
sVWhite Rabbits
p5615
V2t5yZKDT7oAMkOFkoToViO
p5616
sVTriple C's
p5617
V6f6JuOZPACMc5Z3phFAc7A
p5618
sVKathleen Edwards
p5619
V7x4So74vIUx3DaLk93JCFf
p5620
sVAiden
p5621
V1FNjzdmDeHeZjU5qUJlQ1G
p5622
sVMark Salling
p5623
V2r7pfrlnzEtZvAyfNRA6gb
p5624
sVMike E. Clark
p5625
V06iphURrBDUwm37rKYkd2I
p5626
sVThe Script
p5627
V3AQRLZ9PuTAozP28Skbq8V
p5628
sVThe Sounds
p5629
V0W2XAE5AnBWqcGNhfupEOU
p5630
sVKim Walker-Smith
p5631
V4leTWyczsXYGlzUh8sFGSz
p5632
sVYellowcard
p5633
V3zxKH0qp3nBCuPZCZT5Vaf
p5634
sVBen Folds Five
p5635
V44gRHbEm4Uqa0ykW0rDTNk
p5636
sVJosh Abbott Band
p5637
V2EJ5MRZCzpHSSNNEpTx9Kb
p5638
sVSteven Curtis Chapman
p5639
V3vcFXwLEUdfWMu7gTQKyot
p5640
sVClint Black
p5641
V3Ay15wt0QChT4Kapsuw5Jt
p5642
sVSyleena Johnson
p5643
V1lE6SEy8f84Zhjvp7r8yTD
p5644
sVDropkick Murphys
p5645
V7w9jdhcgHNdiPeNPUoFSlx
p5646
sVSymphony X
p5647
V4MnZkh4dpNmTMPxkl4Ev5L
p5648
sVJenni Rivera
p5649
V5c4wQaXkNDqSOTjqX4ExAu
p5650
sVGotye
p5651
V2AsusXITU8P25dlRNhcAbG
p5652
sVDestroyer
p5653
V22ojy4H4ZVpowC4lRRC8In
p5654
sVYears & Years
p5655
V5vBSrE1xujD2FXYRarbAXc
p5656
sVNatalie Merchant
p5657
V73JEBdDEFeVaOLg3y0HhBD
p5658
sVShadows Fall
p5659
V1HaiS1sFo8qkc6tF5Mw1M0
p5660
sVSwitchfoot
p5661
V6S58b0fr8TkWrEHOH4tRVu
p5662
sVLostprophets
p5663
V7KnaZr690xW0sCihF9Z8oP
p5664
sVVeil Of Maya
p5665
V2i7CQcVBh2K6uOR3CH09M1
p5666
sVVampire Weekend
p5667
V5BvJzeQpmsdsFp4HGUYUEx
p5668
sVAretha Franklin
p5669
V7nwUJBm0HE4ZxD3f5cy5ok
p5670
sVChuck Ragan
p5671
V6iU0naWn1UgiTReoiXqPXI
p5672
sVTinie Tempah
p5673
V0Tob4H0FLtEONHU1MjpUEp
p5674
sVJerry Douglas
p5675
V4YgACLaoEjPl4kVZ5WmBN9
p5676
sVSonic Youth
p5677
V5UqTO8smerMvxHYA5xsXb6
p5678
sVFireworks
p5679
V2FcxTTXQKgTdJzTeACMlVU
p5680
sVWarren Haynes
p5681
V73iWh9WUMf0xK6cRkNJK4h
p5682
sVSix Feet Under
p5683
V4pFAF1L1tYnJHLe5hgyKuI
p5684
sVBill Withers
p5685
V1ThoqLcyIYvZn7iWbj8fsj
p5686
sVFleetwood Mac
p5687
V08GQAI4eElDnROBrJRGE0X
p5688
sVDemon Hunter
p5689
V6f3a43i1MJZwdjEpV1M0oH
p5690
sVWolf Parade
p5691
V0XSqX2PB3C5dTMv7SZaxSm
p5692
sVHelloween
p5693
V4pQN0GB0fNEEOfQCaWotsY
p5694
sVThe Dandy Warhols
p5695
V7siPLyFwRFYQkKgWKJ5Sod
p5696
sVBasement Jaxx
p5697
V4YrKBkKSVeqDamzBPWVnSJ
p5698
sVOf Mice & Men
p5699
V4tususHNaR68xdgLstlGBA
p5700
sVWings
p5701
V3sFhA6G1N0gG1pszb6kk1m
p5702
sVYoung Money
p5703
V5OrB6Jhhrl9y2PK0pSV4VP
p5704
sVCypress Hill
p5705
V4P0dddbxPil35MNN9G2MEX
p5706
sVCurren$Y
p5707
V6X8WdFjrNhXATMDSs26aCc
p5708
sVDawn Richard
p5709
V6pSsE5y0uJMwYj83KrPyf9
p5710
sVBaroness
p5711
V3KdXhEwbqFHfNfSk7L9E87
p5712
sVPorter Robinson
p5713
V3dz0NnIZhtKKeXZxLOxCam
p5714
sVGloria Trevi
p5715
V1Db5GsIoVWYktPoD2nnPZZ
p5716
sVSusan Boyle
p5717
V1qAuetfG6mhtDgsVIffWQc
p5718
sVJohn Lennon
p5719
V4x1nvY2FN8jxqAFA0DA02H
p5720
sVLinda Ronstadt
p5721
V1sXbwvCQLGZnaH0Jp2HTVc
p5722
sVRy Cooder
p5723
V1CPwHx5lgVxv0rfcp7UXLx
p5724
sVHe Is Legend
p5725
V53cAPynhUIC5WFgPPfbp2r
p5726
sVDada Life
p5727
V00sAT5YX8W3xNd1EuqyHw9
p5728
sVCharlie Wilson
p5729
V6CxZzQFUTM6AzgluGwtq5w
p5730
sVFarruko
p5731
V329e4yvIujISKGKz1BZZbO
p5732
sVKB
p5733
V77IKXFvO7SpWrq8hflrUXc
p5734
sVA Skylit Drive
p5735
V2HSp2S2KwxKE7sASl6bMR9
p5736
sVCurren$y
p5737
V6X8WdFjrNhXATMDSs26aCc
p5738
sVA Great Big World
p5739
V5xKp3UyavIBUsGy3DQdXeF
p5740
sVSBTRKT
p5741
V1O10apSOoAPjOu6UhUNmeI
p5742
sVOld Dominion
p5743
V6y8XlgIV8BLlIg1tT1R10i
p5744
sVWarpaint
p5745
V3AmgGrYHXqgbmZ2yKoIVzO
p5746
sVThe Lawrence Arms
p5747
V0aQ8Ow9YAkGxr5bbehjkcS
p5748
sVKaki King
p5749
V1s2pki7lATUaBOL76E3vCV
p5750
sVMystery Skulls
p5751
V5ZbRDyTYX4HhXveONcZQn2
p5752
sVMy Chemical Romance
p5753
V7FBcuc1gsnv6Y1nwFtNRCb
p5754
sVGeorge Michael
p5755
V19ra5tSw0tWufvUp8GotLo
p5756
sVtwenty one pilots
p5757
V3YQKmKGau1PzlVlkL1iodx
p5758
sVRakim
p5759
V3PyWEKLWI0vHPmoNrIX0QE
p5760
sVBombay Bicycle Club
p5761
V3pTE9iaJTkWns3mxpNQlJV
p5762
sVBen Harper With Charlie Musselwhite
p5763
V7BJ4b5jafoFGsBgS88bXmE
p5764
sVJ. Holiday
p5765
V7G6hXrjGpi6I7waNl4wxAk
p5766
sVDilated Peoples
p5767
V56OMwqr8qaLIRH4ZrvvdXq
p5768
sVWoe, Is Me
p5769
V7AzzsLSrHV9darZnK3RSDN
p5770
sVDavid Waxman
p5771
V0dWGTlDQRPllVWKAjRyvlf
p5772
sV9th Wonder
p5773
V4s8ZGMVf3OiPktSP4ulpqU
p5774
sVEspinoza Paz
p5775
V01rgao9OzfBm2BOHWJpi1Y
p5776
sVRodney Crowell
p5777
V4QIJ2i8I6urte2scKgkVoY
p5778
sVKindred The Family Soul
p5779
V3RDl7kNfhB72Ojsc2qiyfy
p5780
sVWisin & Yandel
p5781
V1wZtkThiXbVNtj6hee6dz9
p5782
sVMichael Ray
p5783
V6ghiFYcwn2Vzl6K50U0UPz
p5784
sVTurnpike Troubadours
p5785
V1YSA4byX5AL1zoTsSTlB03
p5786
sVKevin Rudolf
p5787
V0Chxmm4XMM87mJOHvyiUzL
p5788
sVRyan Adams
p5789
V2qc41rNTtdLK0tV3mJn2Pm
p5790
sVPhish
p5791
V5wbIWUzTPuTxTyG6ouQKqz
p5792
sVFlex
p5793
V13VwGEitoK8J0qjNjbgeTN
p5794
sVTom Keifer
p5795
V13DH19VTv78pK41rFBOs2U
p5796
sVYoung Buck
p5797
V4pr7J7wzgObkE3DD3Izi7q
p5798
sVthe twilight singers
p5799
V0lmPazVDvsQ8FXDcBfKc6r
p5800
sVEllie Holcomb
p5801
V5hNiAUVPCTgcpy8vljCxzs
p5802
sVShontelle
p5803
V4M6Z1wubeKtwPqbjJygTOc
p5804
sVThe Jacka
p5805
V1Z3HvW1V35gdsbhY20SMoU
p5806
sVMarsha Ambrosius
p5807
V46VWDbmWmzvPBTmkSr25gM
p5808
sVMiranda Lambert
p5809
V66lH4jAE7pqPlOlzUKbwA0
p5810
sVKiss
p5811
V07XSN3sPlIlB2L2XNcTwJw
p5812
sVThe Bravery
p5813
V2bcrMsFlF632EQ6VZERWFu
p5814
sVJohn Legend
p5815
V5y2Xq6xcjJb2jVM54GHK3t
p5816
sVThe Cool Kids
p5817
V1AWNf5CLnHH4oM1hcHiVeV
p5818
sVSecondhand Serenade
p5819
V6eouuqqGggqDlYRV63cgPo
p5820
sVRobbie Seay Band
p5821
V4xPxYiZyp9SWFG3MIFkee5
p5822
sVKrishna Das
p5823
V7BIXafmacnax46P30TEzNz
p5824
sVG. Love & Special Sauce
p5825
V74fkl73HDlCXw0l6cemB89
p5826
sVCage The Elephant
p5827
V26T3LtbuGT1Fu9m0eRq5X3
p5828
sVNick Lowe
p5829
V3BqaUtuQmqIHg7B5Bc7fP7
p5830
sVJustin Hayward
p5831
V1C4kZs9XyNnm9HWFng6ZFH
p5832
sVAnthony David
p5833
V6ktPQsThz35JwdtDsvi51S
p5834
sVAugustana
p5835
V61YE3whKiuRr83j1yOm5M7
p5836
sVShawn Mendes
p5837
V7n2wHs1TKAczGzO7Dd2rGr
p5838
sVTired Pony
p5839
V69Q7zvYHGcTWZpZlLbY2oU
p5840
sVSteve Aoki
p5841
V77AiFEVeAVj2ORpC85QVJs
p5842
sVJenny Lewis
p5843
V5cMVRrisBpDkXCVG48epED
p5844
sVNorma Jean
p5845
V55b0Gfm53udtGBs8mmNXrH
p5846
sVIsaiah Rashad
p5847
V6aaMZ3fcfLv4tEbmY7bjRM
p5848
sVMacklemore & Ryan Lewis
p5849
V5BcAKTbp20cv7tC5VqPFoC
p5850
sVGodsmack
p5851
V6gZq1Q6bdOxsUPUG1TaFbF
p5852
sVGhost B.C.
p5853
V1Qp56T7n950O3EGMsSl81D
p5854
sVBrandon Heath
p5855
V0W7wIkmxoGQbnZYn2z2sLj
p5856
sVThe Airborne Toxic Event
p5857
V7xovAENFxmyEWhzbnHsB3Z
p5858
sVRick Springfield
p5859
V6IFXsrXBpwbIqtOUOiAa3p
p5860
sVJacob Whitesides
p5861
V05tyvnDgYMhgagYbUx9td4
p5862
sVJimi Hendrix
p5863
V776Uo845nYHJpNaStv1Ds4
p5864
sVJavier Colon
p5865
V3flTDj1VSZCktpBGZlNutt
p5866
sVVic Latino
p5867
V7nuE3Iif4PDAc1dlxIk6nj
p5868
sVGerard Way
p5869
V4YZ5ECfbM2xSTSQTJGBbO5
p5870
sVEluveitie
p5871
V5X0N2k3qMnI8kSrGJT3kfT
p5872
sVBig Sean
p5873
V0c173mlxpT3dSFRgMO8XPh
p5874
sVKnuckle Puck
p5875
V5ABfpj7Z00wfPiv2uW4MFm
p5876
sVBen Rector
p5877
V4AapPt7H6bGH4i7chTulpI
p5878
sVGuns N' Roses
p5879
V3qm84nBOXUEQ2vnTfUTTFC
p5880
sVDeafheaven
p5881
V4XpPveeg7RuYS3CgLo75t9
p5882
sVEXO
p5883
V3cjEqqelV9zb4BYE3qDQ4O
p5884
sVMack 10
p5885
V3USpNaxpX1iNqNnQWqg9ob
p5886
sVDaley
p5887
V13UXMns4uwUrEpIzY79Qgw
p5888
sVLittle Dragon
p5889
V6Tyzp9KzpiZ04DABQoedps
p5890
sVLa Dispute
p5891
V7lQKE6HaKQcCsgLRMhsh5W
p5892
sVRedman
p5893
V7xTKLpo7UCzXSnlH7fOIoM
p5894
sVPhil Collins
p5895
V4lxfqrEsLX6N1N4OCSkILp
p5896
sVMichael Franti & Spearhead
p5897
V1mHuZMOP8FG5ip4yAb1vrB
p5898
sVBeanie Sigel
p5899
V0tCtGc5vt29zFZp6KXzN50
p5900
sVVance Joy
p5901
V10exVja0key0uqUkk6LJRT
p5902
sVGoat
p5903
V6jP9Z7o6WlbYvKUOeO5SbP
p5904
sVThe Shins
p5905
V4LG4Bs1Gadht7TCrMytQUO
p5906
sVWalk Off The Earth
p5907
V6jEiUoyyJNPHzSR0Nib6HX
p5908
sVGalactic
p5909
V4rMUtWPGbE6waga7PQO0oQ
p5910
sVAction Bronson
p5911
V7BMccF0hQFBpP6417k1OtQ
p5912
sVClose Your Eyes
p5913
V4EJdKdDfQ0XQ4YBhh12xZe
p5914
sVSleater-Kinney
p5915
V4wLIbcoqmqI4WZHDiBxeCB
p5916
sVTim McGraw
p5917
V6roFdX1y5BYSbp60OTJWMd
p5918
sVFreeway & Jake One
p5919
V4B64yyF6mqAi7c1hs33f4u
p5920
sVSlaughterhouse
p5921
V5rVbcJv0JRfhWLA3mgM73r
p5922
sVPerfect Pussy
p5923
V1xvC1JOx3XYXNk2WqfFLxC
p5924
sVTycho
p5925
V5oOhM2DFWab8XhSdQiITry
p5926
sVThe Brian Setzer Orchestra
p5927
V7HQH1SJokcVMdstilKJ2S8
p5928
sVFailure
p5929
V3grvcGPaLhfrD5CYsecr4j
p5930
sVRufus Wainwright
p5931
V2PfBzriIMRsCXPDtSy9vg8
p5932
sVDrowning Pool
p5933
V1E4r4z7ivGUcSAnCbINJ9v
p5934
sVSelah
p5935
V5dZiRoY9Vpp6qrxqXNRwPE
p5936
sVSufjan Stevens
p5937
V4MXUO7sVCaFgFjoTI5ox5c
p5938
sVThe Avett Brothers
p5939
V196lKsA13K3keVXMDFK66q
p5940
sVBattles
p5941
V3EMSpwRtkvUTxfB4aS5xnA
p5942
sVReckless Kelly
p5943
V0jmPjksXqVrO92Urmx58vg
p5944
sVChester French
p5945
V0NkORBViEBhR6j6PruH0Qv
p5946
sVTye Tribbett
p5947
V1xy9x7h2jKEg8iG22Sml32
p5948
sVAngels & Airwaves
p5949
V7xklw3WodFZiNNmQt3DIgp
p5950
sVPastor Troy
p5951
V3D04N2X2w6vUGeyG94FBaY
p5952
sVP.O.D.
p5953
V6KO6G41BBLTDNYOLefWTMU
p5954
sVCounting Crows
p5955
V0vEsuISMWAKNctLlUAhSZC
p5956
sVCavalera Conspiracy
p5957
V7F1K4WlMshx23V2TTz4KwV
p5958
sVChief Keef
p5959
V15iVAtD3s3FsQR4w1v6M0P
p5960
sVHarry Connick, Jr.
p5961
V6u17YlWtW4oqFF5Hn9UU79
p5962
sVChuck Wicks
p5963
V696fbyLHSMBSYjDrDU5yiK
p5964
sVThe Gaslight Anthem
p5965
V7If8DXZN7mlGdQkLE2FaMo
p5966
sVKill The Noise
p5967
V3qnMl4DHT4gndzFAcG4FlM
p5968
sVMadchild
p5969
V2mOzrayQHznyyCwOcGGHOr
p5970
sVEx Hex
p5971
V2LdMozrLZExZ27oOAnUgkb
p5972
sVJessie Ware
p5973
V5Mq7iqCWBzofK39FBqblNc
p5974
sVBobby Womack
p5975
V0vqkz1b2qBkoYrGMj2CUWq
p5976
sVEdnita Nazario
p5977
V1Lvrnoz3ZKzzrBuZ446e6P
p5978
sVGungor
p5979
V4J4o73Oun7v0XXRjN8DPif
p5980
sVKelly Rowland
p5981
V3AuMNF8rQAKOzjYppFNAoB
p5982
sVEasy Star All-Stars
p5983
V5FWTu1MZdB5fjKif2rZldJ
p5984
sVThe Drifters
p5985
V1FqqOl9itIUpXr4jZPIVoT
p5986
sVJustin Nozuka
p5987
V1uquUYtkdKei0zuhBY9P0t
p5988
sVThe Hoppers
p5989
V76De3CbnkyCKbNg5vDSqI7
p5990
sVEmily Osment
p5991
V7rPQ2z1ji1ctJ6oGYBAo6M
p5992
sVPalisades
p5993
V2w6slVluzWlwADP8aB5yz5
p5994
sVChronixx
p5995
V2oZcMYiKpjaA2Et5mU3RPP
p5996
sVHalsey
p5997
V26VFTg2z8YR0cCuwLzESi2
p5998
sVJoan Sebastian
p5999
V7FsRH5bw8iWpSbMX1G7xf1
p6000
sVAoife O'Donovan
p6001
V1f3ubTd6eyxuy30ddDJQQa
p6002
sVDom Kennedy
p6003
V3s8alQfNnY0roAHaJh7Xxt
p6004
sVMiss May I
p6005
V2OTuoIi28WybVbVcykc237
p6006
sVPassion
p6007
V6piIAIurGAryW5h1rqQC16
p6008
sVAnimals As Leaders
p6009
V65C6Unk7nhg2aCnVuAPMo8
p6010
sVUnited Pursuit
p6011
V4YCpRzudpG6AeE0IvCjiGo
p6012
sVJohnny Marr
p6013
V2bA2YuQk2ID3PWNXUhQrWS
p6014
sVSheryl Crow
p6015
V4TKTii6gnOnUXQHyuo9JaD
p6016
sVLuciano Pavarotti
p6017
V0Y8KmFkKOgJybpVobn1onU
p6018
sVWhirr
p6019
V1tnjjbgszXYa8BbyTzwM0w
p6020
sVDave Rawlings Machine
p6021
V4tlnuBsCPe8BHUuADPvUSL
p6022
sVLil Rob
p6023
V7B7TGqQe7QTVm2U6q8jzk1
p6024
sVDevin The Dude
p6025
V0OMJR0LjjKv21qNvICTgbi
p6026
sVThe Derek Trucks Band
p6027
V1YwfENKEZrowcmtR1nALZn
p6028
sVGunplay
p6029
V7cvtOrIEaUrqbGmYA9Kj34
p6030
sVJowell & Randy
p6031
V4IMAo2UQchVFyPH24PAjUs
p6032
sVBuddy Guy
p6033
V2gCsNOpiBaMNh20jQ5prf0
p6034
sVAshton Shepherd
p6035
V43eAoOm70bzBUNs4JKP5nE
p6036
sVIced Earth
p6037
V3KEixcRfBS5K3E91Vn1Kdy
p6038
sVGuy Penrod
p6039
V29PfPMTOAqc611mj1siNoH
p6040
sVCa$h Out
p6041
V7Kp7SzuRuNiPFCy7JIwnLx
p6042
sVDarkest Hour
p6043
V4dso1lISV1Atdo3O6qbhqq
p6044
sVButcher Babies
p6045
V6FcvjJzvxgybo7Ywsj0hRj
p6046
sVMeredith Andrews
p6047
V6qk2W9h3eE5UtPJlIatzsY
p6048
sVWhitesnake
p6049
V3UbyYnvNIT5DFXU4WgiGpP
p6050
sVPortugal. The Man
p6051
V4kI8Ie27vjvonwaB2ePh8T
p6052
sVLil Dicky
p6053
V1tqhsYv8yBBdwANFNzHtcr
p6054
sVFaith Hill
p6055
V25NQNriVT2YbSW80ILRWJa
p6056
sVTame Impala
p6057
V5INjqkS1o8h1imAzPqGZBb
p6058
sVJedi Mind Tricks
p6059
V0PI3pXpUMScjweiw3IbADc
p6060
sVThe Tenors
p6061
V0IuE3Ne32K4i3BZBbr610a
p6062
sVJack & Jack
p6063
V1INuLZXjjVbcJRyWvD1iSq
p6064
sVEveryday Sunday
p6065
V7DUuU3jQh3RHTzQ7x46dtH
p6066
sVAnthony Hamilton
p6067
V2DzRMyWgjuMbYvt5BLbpCo
p6068
sVTate Stevens
p6069
V7c9RtcxxUIDLt2YdKZkVSr
p6070
sVKillswitch Engage
p6071
V37394IP6uhnjIpsawpMu4l
p6072
sVLauren Alaina
p6073
V1v3tdpIdBSW14rHUfiEVOv
p6074
sVAaron Watson
p6075
V5BKzvAPtNXnt0LwzGvKOH3
p6076
sVJaheim
p6077
V4sbB4Yy6Qig51pKCIKSLw3
p6078
sVRancid
p6079
V6xTk3EK5T9UzudENVvu9YB
p6080
sVChuck Brown
p6081
V2ssIfCr0vMmCuesIw9U4eg
p6082
sVThe Dillinger Escape Plan
p6083
V7IGcjaMGAtsvKBLQX26W4i
p6084
sVStephen Lynch
p6085
V1z4MOvDCbCQ0ZFqnSkVSUC
p6086
sVSara Groves
p6087
V25Kfw0CRHgjl9oCgMfEYz7
p6088
sVScale The Summit
p6089
V16Uqo1jjtPiKI4zU1Ficgb
p6090
sVJennifer Hudson
p6091
V35GL8Cu2GKTcHzKGi75xl5
p6092
sVBlack Joe Lewis & The Honeybears
p6093
V6kbzJ40luXJ5IKnSpWr7SD
p6094
sVRogue Wave
p6095
V2JSc53B5cQ31m0xTB7JFpG
p6096
sVCaribou
p6097
V4aEnNH9PuU1HF3TsZTru54
p6098
sVKeith Urban
p6099
V0u2FHSq3ln94y5Q57xazwf
p6100
sVJames Blake
p6101
V53KwLdlmrlCelAZMaLVZqU
p6102
sVIcona Pop
p6103
V1VBflYyxBhnDc9uVib98rw
p6104
sVThe Foreign Exchange
p6105
V60R4M19QBXvs0gO4IL6CpS
p6106
sVNew Life Worship
p6107
V0wCMw81dQdNPMRB4zadq5g
p6108
sVBurn Halo
p6109
V6WpMmtHYz6DhHhrQWx566m
p6110
sVGroup 1 Crew
p6111
V0S4zLQlUn398bugWd6Inmq
p6112
sVTigers Jaw
p6113
V0tLaqkKW7K6tc3QF9SM0M8
p6114
sVStalley
p6115
V1wUmdemiR9Dxw8A2el365A
p6116
sVJosh Wilson
p6117
V1SbnQl7KrIVnXhYcQcMjL2
p6118
sVGirls
p6119
V6eO95BjZhrWHREMfwC4vVN
p6120
sVAWOLNATION
p6121
V4njdEjTnLfcGImKZu1iSrz
p6122
sVWhite Denim
p6123
V0RdRumkn2UydUjqytNJ2Cp
p6124
sVCross Canadian Ragweed
p6125
V5Vz7hlMWR4OFye64dYoGm0
p6126
sVLow
p6127
V0wz0jO9anccPzH04N7FLBH
p6128
sVBomshel
p6129
V5fGGgk4LAwtPnDnRSqJd5o
p6130
sVGaelic Storm
p6131
V5dlzTgw97q5k5ws89Ww1UK
p6132
sVNothing More
p6133
V39VNwvlQTqE9SvgPjjnMpc
p6134
sVSeth Avett & Jessica Lea Mayfield
p6135
V5zVH7DKFtamUeGnLZHlPsW
p6136
sVCraig Finn
p6137
V78DZaDfOK3i88eRVPkzZu2
p6138
sVSnootie Wild
p6139
V1YXg2Chm7UfZAUAkjJEpqK
p6140
sVJohn P. Kee
p6141
V3WVgChZY3rEyeHd3aljzNl
p6142
sVFlux Pavilion
p6143
V7muzHifhMdnfN1xncRLOqk
p6144
sVTrae Tha Truth
p6145
V49vCIUW46QY3L5vo1xVFoy
p6146
sVSpoon
p6147
V0K1q0nXQ8is36PzOKAMbNe
p6148
sVKottonmouth Kings
p6149
V0jx4hPtb5enLdBDdHKuSgf
p6150
sVSteel Panther
p6151
V3l02WF362j1oHOurzuseBv
p6152
sVCrowbar
p6153
V3xtIpqzIOfQUxKce8BU4Ka
p6154
sVMajor Lazer
p6155
V738wLrAtLtCtFOLvQBXOXp
p6156
sVYoungblood Hawke
p6157
V6VXZCpbkwm0W0aPjQR1t4K
p6158
sVAliados De La Sierra
p6159
V3rJ1WVZ5oP99Mm9Fs6HOj4
p6160
sVZella Day
p6161
V100sLnojEpcadRx4edEBA6
p6162
sVSlipknot
p6163
V05fG473iIaoy82BF1aGhL8
p6164
sVSkyzoo
p6165
V0qHfqHyHZnxvv1lfkJraQc
p6166
sVYouth Lagoon
p6167
V1Z2KInfSmPOzAIYyiaXeti
p6168
sVMiike Snow
p6169
V4l1cKWYW591xnwEGxpUg3J
p6170
sVRichard Smallwood With Vision
p6171
V3nN7ExSDxWUSyxshzyMGdE
p6172
sVJason Lancaster
p6173
V2qelzpB6RrJtn77f5yWmES
p6174
sVJackie Evancho
p6175
V7FukyKMUPL10mDN9LgAngI
p6176
sVMariah Carey
p6177
V4iHNK0tOyZPYnBU7nGAgpQ
p6178
sVJason Derulo
p6179
V07YZf4WDAMNwqr4jfgOZ8y
p6180
sVIn This Moment
p6181
V6tbLPxj1uQ6vsRQZI2YFCT
p6182
sVBright Eyes
p6183
V5o206eFLx38glA2bb4zqIU
p6184
sVTonight Alive
p6185
V5pjCYG6hPLBO3y4swxu3dh
p6186
sVGerardo Ortiz
p6187
V4J13m9IZh03PEhoxAxRhXO
p6188
sVIncubus
p6189
V3YcBF2ttyueytpXtEzn1Za
p6190
sVThe Oak Ridge Boys
p6191
V3XnO697XIus1M0cMuxZjos
p6192
sVSundy Best
p6193
V21lH0EoFGV5oUmyCZuz7jg
p6194
sVletlive.
p6195
V5ACBALsFxT5Ab3gVe8yyPs
p6196
sVBrian Setzer
p6197
V4xiBg5AwhlWtuxAJO9rO6f
p6198
sVSammy Hagar
p6199
V1hXjTjJzZTXDZ75AclOo6N
p6200
sVK'Naan
p6201
V7pGyQZx9thVa8GxMBeXscB
p6202
sVD-Block
p6203
V10Ogon1KatPptarwCMsbU9
p6204
sVMarina And The Diamonds
p6205
V6CwfuxIqcltXDGjfZsMd9A
p6206
sVLa Roux
p6207
V3K2zB87GZv1krx031en5VA
p6208
sVFuel
p6209
V0EyuKHE1AeE9lWUF8mzKVp
p6210
sVLil Wyte
p6211
V21O7WwRkik43ErKppxDKJq
p6212
sVSkylar Laine
p6213
V3YrpCY9NL4XTcKCvBYUwUn
p6214
sVAmaranthe
p6215
V2KaW48xlLnXC2v8tvyhWsa
p6216
sVRemmy Valenzuela
p6217
V4stSxe6AbpXw3x7nRDsYVX
p6218
sVLucinda Williams
p6219
V60ht0hWRy1yjUDfNsLuHuP
p6220
sVDarryl Worley
p6221
V4zIBkSJcqRp4ADuFI94WvO
p6222
sVDope
p6223
V7fWgqc4HJi3pcHhK8hKg2p
p6224
sVKrizz Kaliko
p6225
V3SEJQy90Vgg1aSnZ9b4AU9
p6226
sVApocalyptica
p6227
V4Lm0pUvmisUHMdoky5ch2I
p6228
sVDevilDriver
p6229
V79el7mcHYhXYW3Zek21i0L
p6230
sVSocial Club
p6231
V7eMc4msHZ6aSQJW1ovUhBp
p6232
sVMiley Cyrus
p6233
V5YGY8feqx7naU7z4HrwZM6
p6234
sVCloud Cult
p6235
V6R1T5YklzC9OFugGt8RwOD
p6236
sVDixie Chicks
p6237
V25IG9fa7cbdmCIy3OnuH57
p6238
sVKevin Gates
p6239
V1gPhS1zisyXr5dHTYZyiMe
p6240
sVGin Wigmore
p6241
V4Gzfk9Lxm67nBs7E9BZjzG
p6242
sVDelta Rae
p6243
V0iidQFemlPhkoHqFroz2my
p6244
sVPlies
p6245
V3jksrX4oBklxR78ft8gv3j
p6246
sVAttila
p6247
V67cfzQmxV3XjTg2yaf4W3q
p6248
sVThe Internet
p6249
V7GN9PivdemQRKjDt4z5Zv8
p6250
sVWe Are The Fallen
p6251
V4V0jSDdGGQ2VhYuSOjBUjI
p6252
sVMonica
p6253
V6nzxy2wXs6tLgzEtqOkEi2
p6254
sVMannheim Steamroller
p6255
V0EeHVtSdrYibpGDVHjWEpe
p6256
sVShout Out Louds
p6257
V0UOrN3LNaKApiOSdvJiETl
p6258
sVJosh Turner
p6259
V7vCtweS8UVAXTyau2j0rDT
p6260
sVFreeway
p6261
V2Jwr7hGoSNK3S3QBxh3T0z
p6262
sVVan Morrison
p6263
V44NX2ffIYHr6D4n7RaZF7A
p6264
sVTroye Sivan
p6265
V3WGpXCj9YhhfX11TToZcXP
p6266
sVAvatar
p6267
V4jpaXieuls7LVzG1uma5Rs
p6268
sVDance Gavin Dance
p6269
V6guC9FqvlVboSKTI77NG2k
p6270
sVJosh Rouse
p6271
V38euc5ce2q2MMzaoJcPstz
p6272
sVGrimes
p6273
V053q0ukIDRgzwTr4vNSwab
p6274
sVMaddie & Tae
p6275
V34bhyY8jfKez7uKakMfy4y
p6276
sVTommy Torres
p6277
V264nbMzGPSkDZqTY8nXwCG
p6278
sVKokane
p6279
V7tZrWfaCLVG6ijO3C2ocbQ
p6280
sVHellYeah
p6281
V4hxDvVq5t8ebPYPdBl1F9f
p6282
sVPatrick Stump
p6283
V0wsdUS0EJ7zHgti2nxTVWR
p6284
sVJames Bay
p6285
V4EzkuveR9pLvDVFNx6foYD
p6286
sVNatalie Cole
p6287
V5tTsrGPwQRWUsHR2Xf7Ke9
p6288
sVFlatfoot 56
p6289
V7eQrNqwmiIvFKEMvHRvPLB
p6290
sVMan Overboard
p6291
V7oT6vt8H3q7kA24sicjFzO
p6292
sVMatt Nathanson
p6293
V4NGiEU3Pkd8ASRyQR30jcA
p6294
sVBebo Norman
p6295
V0acFxGm0vYIfwTX4NRlEWd
p6296
sVJordin Sparks
p6297
V2AQjGvtT0pFYfxR3neFcvz
p6298
sVMary J. Blige
p6299
V1XkoF8ryArs86LZvFOkbyr
p6300
sVFountains Of Wayne
p6301
V1pgtr4nhBQjp9oCUBPyYWh
p6302
sVTesseracT
p6303
V23ytwhG1pzX6DIVWRWvW1r
p6304
sVMod Sun
p6305
V3u2R8st1bb6zfBqNWceRXG
p6306
sVCavo
p6307
V7a06JYLmZG3txQqr9uzvbg
p6308
sVElvis Perkins
p6309
V70eE3MS4oHZvZVLLY2fU8B
p6310
sVCeltic Thunder
p6311
V0DZ5n0r1P0ZjKbjPdbN4wr
p6312
sVRyan Bingham
p6313
V31z9f9AyPawiq0qlBO1M3i
p6314
sVTIP
p6315
V2U5vKn5SrZP4faqBQdwMml
p6316
sVLea Michele
p6317
V16rJDrSGCHMXjPUuKwQcvp
p6318
sVBT
p6319
V64MoFdq8ORI3V98AR5SPWL
p6320
sVKatt Williams
p6321
V23MPAWNQLgjmhquLiZ6tWg
p6322
sVChely Wright
p6323
V1aSIXmBKKrEVIbGLwhedIe
p6324
sVKatie Armiger
p6325
V47BBd4qxN8UGBVlESWUefq
p6326
sVAgainst Me!
p6327
V29lz7gs8edwnnfuXW4FhMl
p6328
sVNew Order
p6329
V0yNLKJebCb8Aueb54LYya3
p6330
sVBette Midler
p6331
V13y0kncDD4J9wxCyfKr10W
p6332
sVFirst Aid Kit
p6333
V21egYD1eInY6bGFcniCRT1
p6334
sVBrooks & Dunn
p6335
V0XKOBt59crntr7HQXXO8Yz
p6336
sVMegan Hilty
p6337
V7ks2IcGrojAKIxnUdkHBGk
p6338
sVImogen Heap
p6339
V6Xb4ezwoAQC4516kI89nWz
p6340
sVKandi
p6341
V0ThrQemMA2B8xxusTUl8IM
p6342
sVGreen River Ordinance
p6343
V6Yuow6YoiBaVPFNjZ5BQi7
p6344
sVZeds Dead
p6345
V67qogtRNI0GjUr8PlaG6Zh
p6346
sVCamila
p6347
V2gRP1Ezbtj3qrERnd0XasU
p6348
sVExpire
p6349
V4AfTOzBubFP6STibJPTxwt
p6350
sVDave Alvin
p6351
V1QSEKTN8PPjVzniAkpJ90p
p6352
sVKevin Hart
p6353
V3rHl3rSgCnHhOlVB87ZxyF
p6354
sVThe Early November
p6355
V2rxtSTPBJawYhQAXIpgEAi
p6356
sVHaste The Day
p6357
V7voCqDg5xgF1LZFrmbPS7w
p6358
sVJustice
p6359
V1gR0gsQYfi6joyO1dlp76N
p6360
sVmewithoutYou
p6361
V3D4qYDvoPn5cQxtBm4oseo
p6362
sVCapital Kings
p6363
V3lTIrl4h1Vov8fDaNqXUof
p6364
sVNehruvianDOOM
p6365
V0ZWQOiDsRVjQXoSljCxraD
p6366
sVVeruca Salt
p6367
V2QwJQuBekTA4qF7N7uLHDP
p6368
sVNico & Vinz
p6369
V0awl5piYwO0CDTHEkCjUhn
p6370
sVChris Young
p6371
V4BYxqVkZyFjtik7crYLg5Q
p6372
sVYoung Thug
p6373
V50co4Is1HCEo8bhOyUWKpn
p6374
sVJoan Osborne
p6375
V0djV4iaxhNfYWpH60ia85o
p6376
sVDef Leppard
p6377
V6H1RjVyNruCmrBEWRbD0VZ
p6378
sVCrown The Empire
p6379
V2vKiJjsgjgqIECUyYeIVvO
p6380
sVBig Bad Voodoo Daddy
p6381
V6ROyXB8NDG0fA78S46JdTB
p6382
sVBig & Rich
p6383
V0oBEeN6BCxEgMogzThqrPf
p6384
sVBoys Like Girls
p6385
V0vWCyXMrrvMlCcepuOJaGI
p6386
sVHawk Nelson
p6387
V4hj6ZZxaiKvG5GU3PYf7Gh
p6388
sVAnthony Brown & group therAPy
p6389
V4sgW8IRub0jAU29ecct87w
p6390
sVArmin van Buuren
p6391
V0SfsnGyD8FpIN4U4WCkBZ5
p6392
sVJessica Simpson
p6393
V2tFN9ubMXEhdAQvdQxcsma
p6394
sVGorillaz
p6395
V3AA28KZvwAUcZuOKwyblJQ
p6396
sVCreed
p6397
V43sZBwHjahUvgbx1WNIkIz
p6398
sVJulianne Hough
p6399
V4BA9Z6ZV2JBwwLGGoZX7bs
p6400
sVInsane Clown Posse
p6401
V4xtWjIlVuZwTCeqVAsgEXy
p6402
sVTapes 'n Tapes
p6403
V3PjtmMdeYx3Dg49ZRLS27J
p6404
sVThe Game
p6405
V0NbfKEOTQCcwd6o7wSDOHI
p6406
sVOverkill
p6407
V0NmYchKQ8JIR9QHYJA0FRe
p6408
sVKing Tuff
p6409
V0uI2HyW0eIbTbyH3S2XDHI
p6410
sVJanis Joplin
p6411
V4NgfOZCL9Ml67xzM0xzIvC
p6412
sVStaind
p6413
V5KDIH2gF0VpelTqyQS7udb
p6414
sVLonestar
p6415
V3qbnxnvUqR14MJ9g8QwZJK
p6416
sVTed Leo And The Pharmacists
p6417
V5hbH3dvtk49g07qpc1QwPe
p6418
sVThe Uncluded
p6419
V3TgZxvzeWjtAPq2rf9cx1u
p6420
sVDonald Lawrence
p6421
V40tzRHO6w4wROAdb6Sr21l
p6422
sVBleachers
p6423
V2eam0iDomRHGBypaDQLwWI
p6424
sVWax
p6425
V5aAjDF4uS2ft9fy9vjXWYv
p6426
sVJesus Culture
p6427
V0Onvkz1Nbs4wHXXUwOIGk8
p6428
sVU2
p6429
V51Blml2LZPmy7TTiAg47vQ
p6430
sVThem Crooked Vultures
p6431
V4zYQWYmtimAEmI6WWEzGfO
p6432
sVForte
p6433
V1nGQ3kaqzP9mKZvtutKRnR
p6434
sVTaio Cruz
p6435
V6MF9fzBmfXghAz953czmBC
p6436
sVFinch
p6437
V528t5c0zyuG9beehtth4Za
p6438
sVThriving Ivory
p6439
V0gHWXdaWQObi1A6C1rzgRM
p6440
sVVanessa Carlton
p6441
V5ILrArfIV0tMURcHJN8Q07
p6442
sVCassadee Pope
p6443
V7ahuvq1mbb4idwG1iJbSFG
p6444
sVfun.
p6445
V5nCi3BB41mBaMH9gfr6Su0
p6446
sVPhil Vassar
p6447
V1XhhO2dTs2fKyhILj0aam6
p6448
sVTrevor Hall
p6449
V3RMHexittaAZkf8zukkZB8
p6450
sVShellac
p6451
V6I8R5MFTlez7rHCsH4cx0u
p6452
sVDon Trip
p6453
V0W6Vi3JrMz1BtEOUqG2mcG
p6454
sVAlpha Rev
p6455
V5fhX5cgW9CIJ363zTqAP3a
p6456
sVMeshuggah
p6457
V3ggwAqZD3lyT2sbovlmfQY
p6458
sVLil Jon
p6459
V7sfl4Xt5KmfyDs2T3SVSMK
p6460
sVDeerhoof
p6461
V7AZwAitWq1KcFoIJhRWb6V
p6462
sVThe Swon Brothers
p6463
V1nf0nRF0W4ybnJdda00pKY
p6464
sVPillar
p6465
V2Tkg8omOIsTL617yXVt26e
p6466
sVThe Classic Crime
p6467
V4Y2ImQoh83EyhkbaJXmJr1
p6468
sVJana Kramer
p6469
V2PaRhxWFaqCUZybJDDoNrf
p6470
sVThe Lone Bellow
p6471
V7JFtD8KnbAADBBDleIMuH7
p6472
sVKate Nash
p6473
V5vBKu1igxFo6g1sHADkIdg
p6474
sVNeon Indian
p6475
V0KydPQPUUoTNhmiHKOg5Er
p6476
sVDan Auerbach
p6477
V6YWdHD3R863Apw1hkx3BwC
p6478
sVPimp C
p6479
V7v9bFXCdSMA2o3gS4nvp0F
p6480
sVJewel
p6481
V6FbDoZnMBTdhhhLuJBOOqP
p6482
sVMushroomhead
p6483
V18absyD7lQaXUDBXnyzU8M
p6484
sVMadeleine Peyroux
p6485
V7nXyULtoL8k7wP9l6kg8Ef
p6486
sVKelly Price
p6487
V49FeZO3eSrJs7oH7lYLU1r
p6488
sVCatfish And The Bottlemen
p6489
V2xaAOVImG2O6lURwqperlD
p6490
sVDeath Cab For Cutie
p6491
V0YrtvWJMgSdVrk3SfNjTbx
p6492
sVFace To Face
p6493
V4l9ufn9GC6LLYXvIanDlLd
p6494
sVPercy Sledge
p6495
V3rRmDmzPcAFwcUDvG5gBqO
p6496
sVNewsboys
p6497
V1SZMaiNHfdUuU0qZKZ6y62
p6498
sVJoey Ramone
p6499
V7dxF7y4hlGFazdArMsxbEx
p6500
sVAlanis Morissette
p6501
V6ogn9necmbUdCppmNnGOdi
p6502
sVTony Okungbowa
p6503
V2M8mEtWKqBaZloaq3okMoz
p6504
sVFucked Up
p6505
V05C3EDw4Rf0qMhrdjFKncL
p6506
sVOriginal Cast Recording
p6507
V3HfGekNeA7D6kO5Yz1Pyjw
p6508
sVAlice In Chains
p6509
V64tNsm6TnZe2zpcMVMOoHL
p6510
sVVince Guaraldi Trio
p6511
V4ytkhMSAnrDP8XzRNlw9FS
p6512
sVJanet
p6513
V0LwySibLlyu9JUdUFN1ZoS
p6514
sVMigos
p6515
V6oMuImdp5ZcFhWP0ESe6mG
p6516
sVTori Kelly
p6517
V1vSN1fsvrzpbttOYGsliDr
p6518
sVThe Greater Allen Cathedral
p6519
V5DBYslGXiOdVDa7zHpDMvm
p6520
sVMaroon 5
p6521
V04gDigrS5kc9YWfZHwBETP
p6522
sVGeorge Jones
p6523
V2OpqcUtj10HHvGG6h9VYC5
p6524
sVTrace Adkins
p6525
V79FMDwzZQxHgSkIYBl3ODU
p6526
sVThe Men
p6527
V30XB6UJMhn7v7ZDX2GlIsM
p6528
sVJustin Furstenfeld
p6529
V0LQOvElJ48TNRoHPghgJJo
p6530
sVCody Simpson
p6531
V79Xp2rRN7wdsaTJgttdX3K
p6532
sVNKOTBSB
p6533
V4BjHiejt4AKg6BHeCjtAcF
p6534
sVThe Madden Brothers
p6535
V5geIMZUDvBE9CwP2iBnBuM
p6536
sVOver The Rhine
p6537
V1z26dqCz3PySR4G7HWsn93
p6538
sVDwele
p6539
V7u6LfVyYpEzMpHLL7jTyvU
p6540
sVAudra McDonald
p6541
V7F6surn3OpdyOzupSawyli
p6542
sVNeko Case
p6543
V4Cedjq5BQL3MhapRvDpFED
p6544
sVk.d. lang
p6545
V6W1BHDF0T4a4KYcSwzD586
p6546
sVStreet Sweeper Social Club
p6547
V1YghQU3PwfnDu94PRfE4pv
p6548
sVSmokey Robinson
p6549
V0h9smro0z3HqUbD94jotU8
p6550
sVThe Ghost Of A Saber Tooth Tiger
p6551
V5XjVblVBRyS4yhuBWx9hG7
p6552
sVPig Destroyer
p6553
V4raqfuxaWjPjrOQGb6zoa7
p6554
sVErin McCarley
p6555
V6Y4bCmUNPDKqc7dHkVvgim
p6556
sVDying Fetus
p6557
V2DqzOWVL2ly48IA9bpZdie
p6558
sVLee DeWyze
p6559
V1KNNZV9twnpQBqyUoGvWA6
p6560
sVA$AP Ferg
p6561
V5dHt1vcEm9qb8fCyLcB3HL
p6562
sVChiddy Bang
p6563
V40giwFcTQtv9ezxW8yqxJU
p6564
sVMilky Chance
p6565
V1hzfo8twXdOegF3xireCYs
p6566
sVJohnny Gill
p6567
V7oHzn7edwmrYClrPRINkbn
p6568
sVNoah Gundersen
p6569
V34482S5nfxR441wcnVfrHi
p6570
sVAlexi Murdoch
p6571
V25mrbNwFzoqPWyYXLhiDRw
p6572
sVFour Tet
p6573
V7Eu1txygG6nJttLHbZdQOh
p6574
sVLydia
p6575
V1YYxodrdAUSYhO8ueGQtXs
p6576
sVQuasimoto
p6577
V1rJkz5vopfGxTUGFNB3o4G
p6578
sVBrotha Lynch Hung
p6579
V46UxF4P7x9FUigK1O2sSsV
p6580
sVVince Neil
p6581
V6prESDxZHvHyqqYsHSn0FE
p6582
sVWu-Tang Clan
p6583
V34EP7KEpOjXcM2TCat1ISk
p6584
sVThe Piano Guys
p6585
V0jW6R8CVyVohuUJVcuweDI
p6586
sV3 Doors Down
p6587
V2RTUTCvo6onsAnheUk3aL9
p6588
sVJordan Knight
p6589
V2AEcSFddxmvXT0A7rBwyVL
p6590
sVThe Pussycat Dolls
p6591
V6wPhSqRtPu1UhRCDX5yaDJ
p6592
sVSteffany Gretzinger
p6593
V2akNRvGNB400IDDUMr1PHW
p6594
sVTedeschi Trucks Band
p6595
V2gFsmDBM0hkoZPmrO5EdyO
p6596
sVDev
p6597
V7Ip2u3e5Nv6fFb5xyIHxEE
p6598
sVEverfound
p6599
V0Pd3T9CwmXgcnhJ3ulohq1
p6600
sVAlgebra Blessett
p6601
V0ffXbLm7KIcfu3M1ee0UkP
p6602
sVRon Isley
p6603
V3x5793xivRq6Bw9CkjdtWs
p6604
sVQueen + Paul Rodgers
p6605
V56ktBbLLVKasUyp7bJ2tyk
p6606
sVFlame
p6607
V2s6kyMmJZFgPCHXU0QxJLp
p6608
sVCassidy
p6609
V3WilJWdCNLSU7fpYjiKb7v
p6610
sVStraight No Chaser
p6611
V1yQ8S4xdGOGbUcpaPR6hCM
p6612
sVDiddy - Dirty Money
p6613
V2QYEvpsWUOjqaYuxDPTCmV
p6614
sVFantasia
p6615
V7xAcVHPiirnUqfdqo0USb1
p6616
sVWale
p6617
V67nwj3Y5sZQLl72VNUHEYE
p6618
sVRon White
p6619
V1xlkcCr7PNHw2dRG1Gm6YF
p6620
sVMatt McAndrew
p6621
V4ZgqduOBdbifKWJp8KbiF3
p6622
sVDorothy Norwood
p6623
V3B2PSZmAw3xz6cQ2XMXta7
p6624
sVBIGBANG
p6625
V4Kxlr1PRlDKEB0ekOCyHgX
p6626
sVRyan Adams & The Cardinals
p6627
V5GHv1pBOWOQxIE6WQBq88Q
p6628
sVBrandi Carlile
p6629
V2sG4zTOLvjKG1PSoOyf5Ej
p6630
sVSoundgarden
p6631
V5xUf6j4upBrXZPg6AI4MRK
p6632
sVSkylar Grey
p6633
V4utLUGcTvOJFr6aqIJtYWV
p6634
sVUnwritten Law
p6635
V30h6MvMZfHQ8yzYCbfHMMT
p6636
sVEvanescence
p6637
V5nGIFgo0shDenQYSE0Sn7c
p6638
sVAdore Delano
p6639
V3tdsh4B7GuigHI4vPtUs87
p6640
sVCut Copy
p6641
V4EENT7N7rCBwrddM3s0vFS
p6642
sVNeil Sedaka
p6643
V5N6GwJzOcOY5kv8p0NjhYL
p6644
sVKoryn Hawthorne
p6645
V03qM4LmPCrR7CuHTE0WAIW
p6646
sVTrans-Siberian Orchestra
p6647
V5OSQDUNmll299ldFIF1Dau
p6648
sVSmile Empty Soul
p6649
V1KEUVZo7CMTSJoM8doulOT
p6650
sVDonna Summer
p6651
V2eogQKWWoohI3BSnoG7E2U
p6652
sVSilversun Pickups
p6653
V6qyi8X6MdP1lu6B1K6yh3h
p6654
sVRebecca Ferguson
p6655
V0CrCKxXekxMpkYfMEf8mca
p6656
sVThe Griswolds
p6657
V3nUbzTTtP2w4HqvT5y5vkV
p6658
sVDessa
p6659
V2CQAfzpwwaMxj3YNlb4Gbj
p6660
sVRyn Weaver
p6661
V2MuFzH1J5I6gGFYo2qhZmX
p6662
sVCasey James
p6663
V0AAUWYwZqrnuwkjMCO5OX7
p6664
sVTempo
p6665
V76whng5pl9msPkkjFUtWYn
p6666
sVSir Michael Rocks
p6667
V2F3zBRfrDfm2FyNT0YKyAx
p6668
sVMario
p6669
V20s0P9QLxGqKuCsGwFsp7w
p6670
sVSean Paul
p6671
V3Isy6kedDrgPYoTS1dazA9
p6672
sVAngie Miller
p6673
V6PvtUf5KPILflzh5gn6V98
p6674
sVHalloween FX Productions
p6675
V2JCBXi3V2tlTwXp8Q3tGnY
p6676
sVKreator
p6677
V3BM0EaYmkKWuPmmHFUTQHv
p6678
sVJoshua Radin
p6679
V7omzannyG2lfDqP5xyZo34
p6680
sVTech N9ne Presents Stevie Stone
p6681
V1wBfnm3oGBwhpjeHzqGafE
p6682
sVABBA
p6683
V0LcJLqbBmaGUft1e9Mm8HV
p6684
sVSecrets
p6685
V1TRVqozKc5Qk1cjwRdWBSl
p6686
sVJerry Garcia Band
p6687
V1YTe4dNIoWX3iHX8H4xVeM
p6688
sVDJ Khaled
p6689
V0QHgL1lAIqAw0HtD7YldmP
p6690
sVClyde Bawden
p6691
V0tuWLnsr95GqrLrJTjjZxm
p6692
sVJason Boland & The Stragglers
p6693
V1sX1MkGoDKuMzzhaALPFyZ
p6694
sVMarc Cohn
p6695
V2C8mKwk3z5DtqLcSwUdYJ9
p6696
sVLady Gaga
p6697
V1HY2Jd0NmPuamShAr6KMms
p6698
sVFuture
p6699
V1RyvyyTE3xzB2ZywiAwp0i
p6700
sVRooney
p6701
V78inRkIIF0n9R9I2HPoWP7
p6702
sVColt Ford
p6703
V0OpWIlokQeE7BNQMhuu2Nx
p6704
sVBilly Talent
p6705
V08yf5A2nS4XEeNvabDXqyg
p6706
sVBarenaked Ladies
p6707
V0dEvJpkqhrcn64d3oI8v79
p6708
sVMark Schultz
p6709
V0s7Ro7Q2XagXEYhWbI9PHv
p6710
sVDoves
p6711
V0LVrQUinPUBFvVD5pLqmWY
p6712
sVFred Hammond
p6713
V2ndyVAdV9UqF1XjyTJt484
p6714
sVEric Clapton
p6715
V6PAt558ZEZl0DmdXlnjMgD
p6716
sVGarbage
p6717
V6S0GHTqz5sxK5f9HtLXn9q
p6718
sVThe Cranberries
p6719
V7t0rwkOPGlDPEhaOcVtOt9
p6720
sVSteve Earle
p6721
V2UBTfUoLI07iRqGeUrwhZh
p6722
sVThe Colourist
p6723
V0hK26QoGcuKV3lH0x9MvUU
p6724
sVNikki Yanofsky
p6725
V1n02UdnML6G4wR162YsSRi
p6726
sVTexas In July
p6727
V3J5OtMrtDAw0IcanJR28Ya
p6728
sVTwiztid
p6729
V2aMAN8kMJ7eUOAuPUYOwI7
p6730
sVMeg Myers
p6731
V0W8xe7IqAPlnBRMUpWOUuJ
p6732
sVPhil Wickham
p6733
V5d1JhBfyb58upMXCZOdbQu
p6734
sVLos Rieleros del Norte
p6735
V59xlizZFIFUvLC0I8iV2Jv
p6736
sVPistol Annies
p6737
V2wSgVsgLUZeDJwoLcPO7ny
p6738
sVIris Dement
p6739
V3NPZs8XgXtaWslUcnIw6rY
p6740
s.