(dp0
S'AC/DC'
p1
(dp2
VRock or Bust
p3
(cdatetime
date
p4
(S'\x07\xde\x0c\x02'
p5
tp6
Rp7
(lp8
VRock or Bust
p9
aVPlay Ball
p10
aVRock the Blues Away
p11
aVMiss Adventure
p12
aVDogs of War
p13
aVGot Some Rock & Roll Thunder
p14
aVHard Times
p15
aVBaptism By Fire
p16
aVRock the House
p17
aVSweet Candy
p18
aVEmission Control
p19
atp20
ss.