c__builtin__
set
p0
((lp1
VFrankie Ballard
p2
aVHerb Alpert
p3
aVChico DeBarge
p4
aVThe London Philharmonic Orchestra & The Royal Philharmonic Orchestra
p5
aVHuman Nature
p6
aVFrankie Valli & The 4 Seasons
p7
aVToad The Wet Sprocket
p8
aVCrosby, Stills & Nash
p9
aVLedisi
p10
aVMad Season
p11
aVSt. Paul & Broken Bones
p12
aVGloriana
p13
aVNick Swardson
p14
aVNeil Young & Crazy Horse
p15
aVCode Orange
p16
aVAC/DC
p17
aVNirvana
p18
aVRandy Travis
p19
aVRobert Randolph & The Family Band
p20
aVMassive Attack
p21
aVSPM
p22
aVLil Wayne & T-Pain
p23
aVAl Jarreau
p24
aVJamie Grace
p25
aVNiykee Heaton
p26
aVMaranatha! Praise Band
p27
aVRussell Moore & IIIrd Tyme Out
p28
aVDaughtry
p29
aVStatic-X
p30
aVJohn Fullbright
p31
aVMarc Broussard
p32
aVChickenfoot
p33
aVScars On 45
p34
aVBig Time Rush
p35
aVRed Dragon Cartel
p36
aVTony Testa
p37
aVChris Tomlin
p38
aVGemini Syndrome
p39
aVBig Grams
p40
aVSublime
p41
aVSwans
p42
aVSteve Cropper
p43
aVGary Allan
p44
aVNeil Young With Crazy Horse
p45
aVPeter Wolf
p46
aVBad City
p47
aVKehlani
p48
aVStatik Selektah
p49
aVConor Oberst And The Mystic Valley Band
p50
aVThe Crystal Method
p51
aVJarvis Cocker
p52
aVTite Curet Alonso
p53
aVBayside
p54
aVThe Flaming Lips/Stardeath And White Dwarfs With Henry Rollins And Peaches
p55
aVBusta Rhymes
p56
aVDonell Jones
p57
aVJohn Mellencamp
p58
aVMatthew West
p59
aVRed Hot Chili Peppers
p60
aVStereo Skyline!
p61
aVJuan Luis Guerra Y 440
p62
aVMichael McDonald
p63
aVSandi Patty
p64
aVUnspoken
p65
aVLord Huron
p66
aVGideon
p67
aVCraig Campbell
p68
aVBetween The Trees
p69
aVJJ DOOM
p70
aVMercyMe
p71
aVShwayze
p72
aVEl Trono de Mexico
p73
aVPassion Band
p74
aVdeadmau5
p75
aVN.O.R.E. a.k.a. P.A.P.I.
p76
aVWe Are The In Crowd
p77
aVPedro Fernandez
p78
aV36 Crazyfists
p79
aVGame
p80
aVReal Friends
p81
aVDevil You Know
p82
aVFinger Eleven
p83
aVAirbourne
p84
aVMavis Staples
p85
aVIsaac Carree
p86
aVAriel Pink
p87
aVNada Surf
p88
aVCalifornia Breed
p89
aVDavid Bisbal
p90
aVMary Mary
p91
aVBon Iver
p92
aVGodspeed You! Black Emperor
p93
aVRage Against The Machine
p94
aVDisturbed
p95
aVTrombone Shorty
p96
aVThe Decemberists
p97
aVFifth Harmony
p98
aVJose James
p99
aVSlightly Stoopid
p100
aVLupe Fiasco
p101
aVAshley Tisdale
p102
aVDuke Ellington
p103
aVSuperchunk
p104
aVDave Hollister
p105
aVNat King Cole
p106
aVQueen
p107
aVJack Ingram
p108
aVEdnita
p109
aVCecilia Bartoli
p110
aVThe Band Perry
p111
aVSurfer Blood
p112
aVCiara
p113
aVMurs
p114
aVLynda Randle
p115
aVIron And Wine
p116
aVBrokencyde
p117
aVRaphael Saadiq
p118
aVThe Alchemist
p119
aVGerry Rafferty
p120
aVAlison Krauss & Union Station
p121
aVAvenged Sevenfold
p122
aVSay Anything
p123
aVJim Croce
p124
aVLake Street Dive
p125
aVWhitney Houston
p126
aVWill Hoge
p127
aVElton John / Leon Russell
p128
aVBob Seger & The Silver Bullet Band
p129
aVSebastian Bach
p130
aVThe New Broadway Cast Recording
p131
aVPaul Potts
p132
aVRicky Martin
p133
aVJessie J
p134
aVThe Booth Brothers
p135
aVBlind Guardian
p136
aVWintersun
p137
aVJuan Gabriel
p138
aVAdventure Club
p139
aVKiD iNk
p140
aVJamie Lynn Spears
p141
aVMinistry
p142
aVCraig Morgan
p143
aVDarlene Zschech
p144
aVHeartless Bastards
p145
aVLindsey Stirling
p146
aVStephen Kellogg And The Sixers
p147
aVLuis Fonsi
p148
aVHands Like Houses
p149
aVPaloma Faith
p150
aVJosh Kelley
p151
aVDanzig
p152
aVWhite Denim
p153
aVSean Price
p154
aVLouis C.K.
p155
aVKenny Chesney
p156
aVTina Campbell
p157
aVBush
p158
aVQueen Latifah
p159
aVStevie Ray Vaughan
p160
aVMandy Moore
p161
aVThomas Bergersen
p162
aVLoCash Cowboys
p163
aVQuincy Jones
p164
aVTravis Barker & YelaWolf
p165
aVRay Lamontagne And The Pariah Dogs
p166
aVDavid Foster
p167
aVEric Clapton And Steve Winwood
p168
aVRoger Clyne And The Peacemakers
p169
aVJake Bugg
p170
aVMitchel Musso
p171
aVJason Michael Carroll
p172
aVPatsy Cline
p173
aVTheory Of A Deadman
p174
aVEagles
p175
aVCannibal Corpse
p176
aVLuke Bryan
p177
aVArtie Lange
p178
aVIl Divo
p179
aVAmy Winehouse
p180
aVLittle Mix
p181
aVGoldfrapp
p182
aVPhoenix
p183
aVStarset
p184
aVDave Koz
p185
aVJohn Waller
p186
aVXzibit
p187
aVThe Front Bottoms
p188
aVCold 187um
p189
aVLP
p190
aVEtta James
p191
aVEcho And The Bunnymen
p192
aVPeter Murphy
p193
aVLevon Helm
p194
aVWu-Tang
p195
aVMemphis May Fire
p196
aVNelly Furtado
p197
aVJoyce Manor
p198
aVJohnny Mathis
p199
aVKalin And Myles
p200
aVBlood On The Dance Floor
p201
aVGym Class Heroes
p202
aVMurs And 9th Wonder
p203
aVCarole King
p204
aVHolly Williams
p205
aVLittle Brother
p206
aVRise Against
p207
aVBen & Ellen Harper
p208
aVCibo Matto
p209
aVStarlito
p210
aVKamelot
p211
aVDusty Springfield
p212
aVJames Brown
p213
aVJay Farrar/Will Johnson/Anders Parker/Yim Yames
p214
aVThe Helio Sequence
p215
aVThe Lumineers
p216
aVMaxwell
p217
aVRobert Plant
p218
aVRodrigo Y Gabriela
p219
aVThe Antlers
p220
aVNick 13
p221
aVThe Wild Feathers
p222
aVSwoope
p223
aVThe Used
p224
aVLloyd
p225
aVThe Orwells
p226
aVRichie Sambora
p227
aVNeil Finn
p228
aVWild Flag
p229
aVI LOVE MAKONNEN
p230
aVThe Swell Season
p231
aVDavid Phelps
p232
aVDivine Fits
p233
aVMayer Hawthorne
p234
aVPRo
p235
aVCut Copy
p236
aVSavages
p237
aVAloe Blacc
p238
aVBlur
p239
aVWillie Nelson And Asleep At The Wheel
p240
aVThe Robert Glasper Trio
p241
aVBrett Eldredge
p242
aVVicci Martinez
p243
aVNight Ranger
p244
aVBig Data
p245
aVMariachi El Bronx
p246
aVSade
p247
aVTed Nugent
p248
aVJon McLaughlin
p249
aVAs Blood Runs Black
p250
aVK-Ci & JoJo
p251
aVJuan Velez
p252
aVEvery Avenue
p253
aVBeck
p254
aVPatton Oswalt
p255
aVWarr Acres
p256
aVSully Erna
p257
aVDelbert & Glen
p258
aVAnthony Green
p259
aVTitus Andronicus
p260
aVJason Nevins
p261
aVBarbra Streisand
p262
aVMisterwives
p263
aVSoulja Boy Tell'em
p264
aVChris Brown
p265
aVTina Turner
p266
aVTHE FARM INC.
p267
aVAugust Burns Red
p268
aVKim Walker-Smith & Skyler Smith
p269
aVMoonshine Bandits
p270
aVRammstein
p271
aVWax
p272
aVAvril Lavigne
p273
aVDisco Biscuits
p274
aVLos Tucanes de Tijuana
p275
aVLes Claypool
p276
aVDavid Byrne & Brian Eno
p277
aVIndia
p278
aVSting
p279
aVSlash Featuring Myles Kennedy
p280
aVPuscifer
p281
aVSeven Lions
p282
aVOne Worship
p283
aVGod Help The Girl
p284
aVAnti-Flag
p285
aVGeorge Duke
p286
aVMat Kearney
p287
aVThe Neighbourhood
p288
aVHugh Laurie
p289
aVGeorge Ezra
p290
aVAnoushka Shankar
p291
aVNightwish
p292
aVOmarion
p293
aVIll Nino
p294
aVPJ Harvey & John Parish
p295
aVPearl Jam
p296
aVSheek Louch
p297
aVThe 1975
p298
aVTravis
p299
aVJessica Reedy
p300
aVSkeletonwitch
p301
aVModest Mouse
p302
aVDavid Cross
p303
aVBetween The Buried And Me
p304
aVThe JaneDear Girls
p305
aVDavid Crowder Band
p306
aVMuse
p307
aVHurt
p308
aVBABYMETAL
p309
aVBasement
p310
aVKaty Perry
p311
aVHole
p312
aVHozier
p313
aVOh Wonder
p314
aVCraig Wayne Boyd
p315
aVDave Koz / Gerald Albright / Mindi Abair / Richard Elliot
p316
aVAFI
p317
aVSaliva
p318
aVGreg Laswell
p319
aVSwedish House Mafia
p320
aVTrampled By Turtles
p321
aVTyler Hilton
p322
aVSarah Brightman
p323
aVHonor Society
p324
aVPaul Anka
p325
aVTV On The Radio
p326
aVJim Brickman
p327
aVGeorge Strait
p328
aVJazmine Sullivan
p329
aVKXM
p330
aVShawn Colvin
p331
aVAlex & Sierra
p332
aVMetric
p333
aVGov't Mule Featuring John Scofield
p334
aVSam Adams
p335
aVFrench Montana
p336
aVLeon Russell
p337
aVEmeli Sande
p338
aVBilly Childs
p339
aVObituary
p340
aVAlbert King With Stevie Ray Vaughan
p341
aVPassenger
p342
aVAaron Lewis
p343
aVRoyal Bliss
p344
aVJason Nelson
p345
aVMurder By Death
p346
aVHot Chelle Rae
p347
aVJack's Mannequin
p348
aVDizzy Wright
p349
aVTenth Avenue North
p350
aVThe Acacia Strain
p351
aVPatterson Hood
p352
aVNeal E. Boyd
p353
aVJencarlos
p354
aVThe Red Chord
p355
aVDevotchka
p356
aVDie Antwoord
p357
aVEmmy Rossum
p358
aVDavid Byrne & St. Vincent
p359
aVStone Temple Pilots
p360
aVJencarlos Canela
p361
aVBowling For Soup
p362
aVKatharine McPhee
p363
aVThe Killers
p364
aVThe Issues
p365
aVBonnie "Prince" Billy
p366
aVBillie Joe + Norah Jones
p367
aVTremonti
p368
aVHanson
p369
aVBonobo
p370
aVSelena
p371
aVTori Amos
p372
aVHome Free
p373
aVAlexander
p374
aVJessie James Decker
p375
aVDave Hause
p376
aVDavid Bowie
p377
aVBlitzen Trapper
p378
aVMerle Haggard
p379
aVElla Henderson
p380
aVEchosmith
p381
aVIamSu!
p382
aVThe Menzingers
p383
aVDraco Rosa
p384
aVZac Brown Band
p385
aVCharles Jenkins & Fellowship Chicago
p386
aVRoger Creager
p387
aVConjunto Primavera
p388
aVE-40 And Too $hort
p389
aVEl Gran Combo
p390
aVThe Weepies
p391
aVDeuce
p392
aVBanda Los Recoditos
p393
aVNeil Young/International Harvesters
p394
aVStryper
p395
aVKasabian
p396
aVFive Iron Frenzy
p397
aVVNV Nation
p398
aVBlack Stone Cherry
p399
aVUsher
p400
aVDeas Vail
p401
aVMadonna
p402
aVPrimus & The Chocolate Factory With The Fungi Ensemble
p403
aVBee Gees
p404
aVCHVRCHES
p405
aVA.C. Newman
p406
aVSaves The Day
p407
aVCoheed And Cambria
p408
aVChicago
p409
aVIsrael & New Breed
p410
aVThe Thermals
p411
aVBallyhoo!
p412
aVThe Fireman
p413
aVAnthony Evans
p414
aVRixton
p415
aVPaul Weller
p416
aVNichole Nordeman
p417
aVZomboy
p418
aVeels
p419
aVDre Murray
p420
aVThe Head And The Heart
p421
aVElectric Wizard
p422
aVThousand Foot Krutch
p423
aVJames Otto
p424
aVAdrenaline Mob
p425
aVFive Finger Death Punch
p426
aVTalib Kweli + Hi-Tek Are Reflection Eternal
p427
aVCrossfade
p428
aVPRhyme
p429
aVPARTYNEXTDOOR
p430
aVLike Moths To Flames
p431
aVFriendly Fires
p432
aVThe Dead Rabbitts
p433
aVAnimal Collective
p434
aVUnknown Mortal Orchestra
p435
aVMint Condition
p436
aVMaria Bamford
p437
aVIron And Wine & Ben Bridwell
p438
aVDanny Brown
p439
aVPatrulla 81
p440
aVPapoose
p441
aVThe Allman Brothers Band
p442
aVLogic
p443
aVAlabama
p444
aVDustin Kensrue
p445
aVMax B
p446
aVWinds Of Plague
p447
aVOh Land
p448
aVMelissa Etheridge
p449
aVBill & Gloria Gaither
p450
aVTristan Prettyman
p451
aVRobbie Robertson
p452
aVTyrese
p453
aVStevie Stone
p454
aVBrad Paisley
p455
aVDisclosure
p456
aVNeck Deep
p457
aVBrooke Fraser
p458
aVChristian Pagan
p459
aVAsher Roth
p460
aVPop Evil
p461
aVYanni
p462
aVBjork
p463
aVThe Brooklyn Tabernacle Choir
p464
aVLonnie Hunter Featuring Structure
p465
aVThe Mowgli's
p466
aVStick To Your Guns
p467
aVJagged Edge
p468
aVA Fine Frenzy
p469
aVFlorida Georgia Line
p470
aVElizaveta
p471
aVFlo Rida
p472
aVDada Life
p473
aVHalford
p474
aVThe Joy Formidable
p475
aVSet It Off
p476
aVDarlene Love
p477
aVCKY
p478
aVJesse McCartney
p479
aVGillian Welch
p480
aVYusuf
p481
aVNo Age
p482
aVJeffree Star
p483
aVFalling In Reverse
p484
aVReel Big Fish
p485
aVJohn Rich
p486
aVScorpions
p487
aVLittle Big Town
p488
aVTodd Snider
p489
aVIdina Menzel
p490
aVChimaira
p491
aVCanaan Smith
p492
aVMS MR
p493
aVTeddy Pendergrass
p494
aVTricky
p495
aVThe Word Alive
p496
aVCrosses
p497
aVTroy Ave
p498
aVSlash Featuring Myles Kennedy & The Conspirators
p499
aVThe Departed
p500
aVLaura Marling
p501
aVStephen Malkmus And The Jicks
p502
aVA Skylit Drive
p503
aVStreetlight Manifesto
p504
aVThe Temper Trap
p505
aVKing Krule
p506
aVPaper Route
p507
aVThe Beach Boys
p508
aVRobin Williams
p509
aVG. Love
p510
aVZZ Top
p511
aVJay Reatard
p512
aVCapture The Crown
p513
aVFit For A King
p514
aVErnie Haase & Signature Sound
p515
aVDia Frampton
p516
aVI See Stars
p517
aVDispatch
p518
aVThe Chipmunks
p519
aVThe Countdown Kids
p520
aVColbie Caillat
p521
aVRed Wanting Blue
p522
aVTeena Marie
p523
aVThe Temptations
p524
aVKid Ink
p525
aVJill Scott
p526
aVMark Olson & Gary Louris
p527
aVDelta Spirit
p528
aVDJ Nesty
p529
aVSister Hazel
p530
aVN.A.S.A.
p531
aVDuane Allman
p532
aVProdigy X Alchemist
p533
aVIbeyi
p534
aVDMX
p535
aVJoe Jackson
p536
aVOrianthi
p537
aVMissy Elliott
p538
aVMiike Snow
p539
aVThe London Classical Orchestra (Wilson)
p540
aVPHOX
p541
aVDead By Sunrise
p542
aVAmanda Blank
p543
aVKari Jobe
p544
aVEmily West
p545
aVBrandon Boyd
p546
aVCage
p547
aVDeath From Above 1979
p548
aVMotley Crue
p549
aVSun Kil Moon
p550
aVGraffiti6
p551
aVMeytal
p552
aVGod Forbid
p553
aVJohn Newman
p554
aVEmmure
p555
aV3OH!3
p556
aVFor All Those Sleeping
p557
aVJeff Bridges
p558
aVDevendra Banhart
p559
aVSara Evans
p560
aVHaley Reinhart
p561
aVShe & Him
p562
aVWild Belle
p563
aVThe Lonely Island
p564
aVFlogging Molly
p565
aVLos Bukis
p566
aVSleeping Giant
p567
aVGeorge Harrison And Friends
p568
aVPuddle Of Mudd
p569
aVGoodie Mob
p570
aVSting & The Police
p571
aVChelsea Grin
p572
aVThe Jayhawks
p573
aVGuy Clark
p574
aVJeff Buckley
p575
aVThe Wombats
p576
aVManny Manuel
p577
aVUnderoath
p578
aVOlly Murs
p579
aVBillie Holiday
p580
aVChris Isaak
p581
aVShe Wants Revenge
p582
aVMeth/Ghost/Rae
p583
aVSteel Magnolia
p584
aVWayne Static
p585
aVTrina
p586
aV2NE1
p587
aVShelby Lynne
p588
aVNew Broadway Cast Recording
p589
aVSkull Gang
p590
aVChiquis Rivera
p591
aVThe Hold Steady
p592
aVF.L.Y. (Fast Life Yungstaz)
p593
aVTy Segall
p594
aVCimorelli
p595
aVThe Pretty Reckless
p596
aVBad Religion
p597
aVBeth Orton
p598
aVtUnE-YaRdS
p599
aVBrandy
p600
aVSkrillex
p601
aVNas
p602
aVWolf Alice
p603
aVBill & Gloria Gaither With Their Homecoming Friends
p604
aVWoe, Is Me
p605
aVJohn Butler Trio
p606
aVBen Folds With yMusic/Nashville Symphony (Guerrero)
p607
aVMeShell Ndegeocello
p608
aVAttention Deficit Domination
p609
aVLa Arrolladora Banda el Limon de Rene Camacho
p610
aVE-40
p611
aVJess Glynne
p612
aVRicky Dillard & New G
p613
aVMilo Greene
p614
aVTexas Hippie Coalition
p615
aVGodspeed You Black Emperor
p616
aVSho Baraka
p617
aVSons Of The Sea
p618
aVCursive
p619
aVBritney Spears
p620
aVSondre Lerche
p621
aVJudas Priest
p622
aVAs It Is
p623
aVThe Chieftains
p624
aVSergio Vega: El Shaka
p625
aVPunch Brothers
p626
aVCyndi Lauper
p627
aVKerli
p628
aVWalk The Moon
p629
aVSuicide Silence
p630
aVThe War On Drugs
p631
aVThe Plot In You
p632
aVFiction Family
p633
aVSeth MacFarlane
p634
aVGary Numan
p635
aVBetraying The Martyrs
p636
aVRoyal Tailor
p637
aVMAYDAY!
p638
aVLil' Boosie
p639
aVThe Digital Age
p640
aVKittie
p641
aVCeltic Woman Featuring The High Kings
p642
aVProzak
p643
aVTrick Daddy
p644
aVGlasses Malone
p645
aVEl DeBarge
p646
aVShari Addison
p647
aVCarpenters
p648
aVKane Brown
p649
aVMacy Gray
p650
aVThe Steve Miller Band
p651
aV1-1-Six
p652
aVLandau Eugene Murphy, Jr.
p653
aVMatt Skiba And The Sekrets
p654
aVThe Devil Wears Prada
p655
aV12 Stones
p656
aVWilson Phillips
p657
aVRoger Waters
p658
aVBucky Covington
p659
aVPhilip H. Anselmo & The Illegals
p660
aVPaul Van Dyk
p661
aVLes Claypool's Duo De Twang
p662
aVThe Killjoy Club
p663
aVKany Garcia
p664
aVSWV
p665
aVThe Wrecking
p666
aVMichael W. Smith
p667
aVSleepwave
p668
aVSky Sailing
p669
aVBing Crosby
p670
aVElla Fitzgerald
p671
aVSuzanne Vega
p672
aVNatalia Kills
p673
aV98 Degrees
p674
aVThe Rocket Summer
p675
aVBlakRoc
p676
aVSinead O'Connor
p677
aVMindy Smith
p678
aVIn Flames
p679
aVOld 97's
p680
aVJerry Lee Lewis
p681
aVCollective Soul
p682
aVPretty Lights
p683
aVBela Fleck & Abigail Washburn
p684
aVA Firm Handshake
p685
aVBig Daddy Weave
p686
aVHowie Day
p687
aVCasey J
p688
aVThe Kenny Wayne Shepherd Band
p689
aVKylie Minogue
p690
aVStarlito / Don Trip
p691
aVAce Frehley
p692
aVGaither Vocal Band
p693
aVTwista
p694
aVOK Go
p695
aVVolbeat
p696
aVMindy McCready
p697
aVJason Isbell And The 400 Unit
p698
aVGrinderman
p699
aVGlen Campbell
p700
aVWynton Marsalis
p701
aVFKA twigs
p702
aVDorrough
p703
aVGavin DeGraw
p704
aVSuperHeavy
p705
aVDaryl Hall
p706
aVMarsha Ambrosius
p707
aVBobby Womack
p708
aVOakenfold
p709
aVAndre Rieu
p710
aVJet
p711
aVPJ Morton
p712
aVWE the Kings
p713
aVSoundtrack
p714
aVKathleen Edwards
p715
aVBallas Hough Band
p716
aVAlter Bridge
p717
aVThe Original Broadway Cast Recording
p718
aVBarry White
p719
aVBobby Valentino
p720
aVLady Antebellum
p721
aVThey Might Be Giants
p722
aVBill & Gloria Gaither And Their Homecoming Friends
p723
aVKT Tunstall
p724
aVToto
p725
aVBrandon Flowers
p726
aVAbove & Beyond
p727
aVPeter Gabriel
p728
aVDavid Garrett
p729
aVAlabama & Friends
p730
aVMyron Butler
p731
aVJohnny Winter
p732
aVKISS
p733
aVAB-Soul
p734
aVHeart
p735
aVJamie xx
p736
aVBill Engvall
p737
aVArch Enemy
p738
aVThe Rolling Stones
p739
aVTom DeLonge
p740
aVChris Knight
p741
aVClairy Browne & The Bangin' Rackettes
p742
aVNorthlane
p743
aVYim Yames
p744
aVRachel Platten
p745
aVBeth Hart/Joe Bonamassa
p746
aVSmallpools
p747
aVThe Damnwells
p748
aVShooter Jennings & Hierophant
p749
aVSworn In
p750
aVTraci Braxton
p751
aVShovels & Rope
p752
aVTrey Songz
p753
aVHillsong
p754
aVKurt Carr & The Kurt Carr Singers
p755
aVDredg
p756
aVWiz Khalifa & Curren$Y
p757
aVNoel Gallagher's High Flying Birds
p758
aVJon Foreman
p759
aVMos Def
p760
aVJoe Nichols
p761
aVB.B. King
p762
aVAtlas Genius
p763
aVKONGOS
p764
aVThe Walkmen
p765
aVLisa Marie Presley
p766
aVChris Jamison
p767
aVKidz Bop Kids
p768
aVPalms
p769
aVWithin The Ruins
p770
aVSam Hunt
p771
aVHalestorm
p772
aVLewis Black
p773
aVDharoha Project, Laura Marling And Mumford & Sons
p774
aVRebelution
p775
aVThe Both
p776
aVRussian Circles
p777
aVConjunto Atardecer
p778
aVPretty Ricky
p779
aVBlessthefall
p780
aVAlesso
p781
aVRobin Thicke
p782
aVJim Gaffigan
p783
aVMarcus Canty
p784
aVJoshua Bell/Jeremy Denk
p785
aVBoney James
p786
aVClutch
p787
aVTedashii
p788
aVMason Jennings
p789
aVLucius
p790
aVBest Coast
p791
aVDARKSIDE
p792
aVTom Jones
p793
aVMonster Magnet
p794
aVJD McPherson
p795
aVFrancesca Battistelli
p796
aVPunchline
p797
aVCreedence Clearwater Revisited
p798
aVKristian Stanfill
p799
aVJoan Jett & the Blackhearts
p800
aVBetty Wright And The Roots
p801
aVChris Brown & Tyga
p802
aVThe Tragically Hip
p803
aVPrince
p804
aVPeaches
p805
aVOld Crow Medicine Show
p806
aVScarface
p807
aVDJ Quik & Kurupt
p808
aVBirdy
p809
aVDefeater
p810
aVGomez
p811
aVHigh On Fire
p812
aVThe Story So Far
p813
aVKevon Edmonds
p814
aVThe Replacements
p815
aVFee
p816
aVJuicy J
p817
aVTyler, The Creator
p818
aVThe Faceless
p819
aVHandguns
p820
aVDJ Shadow
p821
aVChris Botti
p822
aVMark Ronson
p823
aVPoison
p824
aVRosanne Cash
p825
aVBrian Courtney Wilson
p826
aVEyehategod
p827
aVYou Blew It!
p828
aVEsperanza Spalding
p829
aVArmin Van Buuren
p830
aVSlaves
p831
aVMarie Osmond
p832
aVSoul Asylum
p833
aVJeff Loomis
p834
aVEarnest Pugh
p835
aVGrace Potter & The Nocturnals
p836
aVISIS
p837
aVJay Z  Kanye West
p838
aVRatatat
p839
aVFour Year Strong
p840
aVThe Tallest Man On Earth
p841
aVMeg & Dia
p842
aVHootie & The Blowfish
p843
aVDevice
p844
aVAmy Lee Featuring Dave Eggar
p845
aVLil Jon
p846
aVCalexico
p847
aVFrightened Rabbit
p848
aVMastodon
p849
aVSir Sly
p850
aV2 Chainz
p851
aVThe Velvet Underground & Nico
p852
aVRehab
p853
aVOne eskimO
p854
aVKid Cudi
p855
aVGalantis
p856
aVWarren Haynes Featuring Railroad Earth
p857
aVRoky Erickson With Okkervil River
p858
aVGeorge Thorogood
p859
aVRun River North
p860
aVThe White Tie Affair
p861
aVGary Go
p862
aVSteven Wilson
p863
aVThe Cars
p864
aVA Perfect Circle
p865
aVJoel Crouse
p866
aVJamie Foxx
p867
aVIan Anderson
p868
aVZero 7
p869
aVIce Cube
p870
aVKaren O And The Kids
p871
aVRhett Miller
p872
aVPinback
p873
aVCrowded House
p874
aVNatasha Bedingfield
p875
aVDr. John
p876
aVWillie Nelson
p877
aVHavok
p878
aVLocal Natives
p879
aVThe Melvins
p880
aVHow To Dress Well
p881
aVLeighton Meester
p882
aVBring Me The Horizon
p883
aVChelsea Wolfe
p884
aVMissy Higgins
p885
aVAmerican Football
p886
aVN'Klabe
p887
aVCarbon Leaf
p888
aVSkizzy Mars
p889
aVMichael Sweet
p890
aVAtlas Sound
p891
aVWALK THE MOON
p892
aVFences
p893
aVPak X Emh
p894
aVJars Of Clay
p895
aVDavid Byrne & Fatboy Slim
p896
aVLos Tigres del Norte
p897
aVBuckcherry
p898
aVIvy Queen
p899
aVKaren Clark-Sheard
p900
aVJustin Bieber
p901
aVIggy And The Stooges
p902
aVBrooke White
p903
aVRobbie Williams
p904
aVFrank Sinatra, Dean Martin & Sammy Davis Jr
p905
aVSublime With Rome
p906
aV(hed) p.e.
p907
aVGorilla Zoe
p908
aVWhiskey Myers
p909
aVDa T.R.U.T.H.
p910
aVTasha Page-Lockhart
p911
aVMatthew Morrison
p912
aVDonald Fagen
p913
aVRed Fang
p914
aVAbandon All Ships
p915
aVMurs X Fashawn
p916
aVSerj Tankian
p917
aVThe Birthday Massacre
p918
aVCharice
p919
aVZ-Ro
p920
aVThe Statler Brothers
p921
aVJohn Fogerty/The Blue Ridge Rangers
p922
aVHouse Of Heroes
p923
aVCarrie Underwood
p924
aVEmmylou Harris
p925
aVMila J
p926
aVFrank Sinatra With Count Basie And His Orchestra
p927
aVLower Dens
p928
aVPlain White T's
p929
aVmatchbox 20
p930
aVMaylene And The Sons Of Disaster
p931
aVMumford & Sons
p932
aVAtreyu
p933
aV*NSYNC
p934
aVShiny Toy Guns
p935
aVLeeland
p936
aVHit The Lights
p937
aVLord Hurdon
p938
aVWilliam Clark Green
p939
aVBrand New
p940
aVLaura Bell Bundy
p941
aVRev Theory
p942
aVPlumb
p943
aVMarvin Sapp
p944
aVRicardo Arjona
p945
aVJens Lekman
p946
aVJoe Walsh
p947
aVBrian Wilson
p948
aVMotion City Soundtrack
p949
aVThe Robert Cray Band
p950
aVKeith & Kristyn Getty
p951
aVToro Y Moi
p952
aVJanelle Monae
p953
aVAgnetha Faltskog
p954
aVSam Cooke
p955
aVJames Blunt
p956
aVLyle Lovett
p957
aVHot Water Music
p958
aVThe Fall Of Troy
p959
aVFranco El Gorila
p960
aVThe Go! Team
p961
aVJimmy Webb
p962
aVFitz And The Tantrums
p963
aVMarvin Gaye
p964
aVJack White
p965
aVBilly Ray Cyrus
p966
aVThe Prodigy
p967
aVDrew Holcomb And The Neighbors
p968
aVP.O.S.
p969
aVWhitechapel
p970
aVManchester Orchestra
p971
aVAnuna
p972
aVErykah Badu
p973
aVNothing
p974
aVAndrew Jackson Jihad
p975
aVTestament
p976
aVImelda May
p977
aVJuanes
p978
aVJason Castro
p979
aVFlyleaf
p980
aVThe Cheetah Girls
p981
aVThe White Buffalo
p982
aVRob Thomas
p983
aVElvis Costello And The Roots
p984
aVTony Bennett Featuring The Count Basie Big Band
p985
aVKeKe Wyatt
p986
aVJadakiss
p987
aVHiatus Kaiyote
p988
aVWarren Haynes Band
p989
aVLudacris
p990
aVCanon
p991
aVEve 6
p992
aVI The Mighty
p993
aVLady GaGa
p994
aVBrother Ali
p995
aVThe Darkness
p996
aVThe Nick Hexum Quintet
p997
aVBand Of Horses
p998
aVBrandon & Leah
p999
aVLana Del Rey
p1000
aVBloc Party
p1001
aVThe Chieftains Featuring Ry Cooder
p1002
aVMormon Tabernacle Choir
p1003
aVCheap Trick
p1004
aVk.flay
p1005
aVPanda Bear
p1006
aVSimple Plan
p1007
aVBishop Eddie Long & Friends Featuring GW's
p1008
aVRed
p1009
aV5 Seconds Of Summer
p1010
aVWiz Khalifa
p1011
aVJJ Cale
p1012
aVKenny Lattimore
p1013
aVZedd
p1014
aVMindless Behavior
p1015
aVTennessee Ernie Ford
p1016
aVRico Calhoun
p1017
aVThe Reverend Peyton's Big Dam Band
p1018
aVThe Bronx
p1019
aVEverclear
p1020
aVdumblonde
p1021
aVFamily Force 5
p1022
aVThe Low Anthem
p1023
aVTony Touch
p1024
aVCreedence Clearwater Revival Featuring John Fogerty
p1025
aVAlejandro Sanz
p1026
aVCults
p1027
aVKreayshawn
p1028
aVCally
p1029
aVBuddy Holly
p1030
aVAlejandro Escovedo
p1031
aVPesado
p1032
aVDJ Kayslay
p1033
aVGroup 1 Crew
p1034
aVEllie Goulding
p1035
aVDeitrick Haddon's LXW
p1036
aVShovels And Rope
p1037
aVNew Found Glory
p1038
aVSet Your Goals
p1039
aVBlack Mountain
p1040
aVFitz & The Tantrums
p1041
aVMichael Jackson
p1042
aVHighly Suspect
p1043
aVBreathe Carolina
p1044
aVBad Company
p1045
aVJake Miller
p1046
aVMatty Mullins
p1047
aVBoston
p1048
aVAl B. Sure!
p1049
aVJohn Mark McMillan
p1050
aVNonpoint
p1051
aVDaylight
p1052
aVAll Shall Perish
p1053
aVMaino
p1054
aVSturgill Simpson
p1055
aVMarty Stuart And His Fabulous Superlatives
p1056
aVKishi Bashi
p1057
aVSammy Hagar With Vic Johnson
p1058
aVChris Webby
p1059
aVLloyd Banks
p1060
aVIration
p1061
aVRandy Houser
p1062
aVThe Winery Dogs
p1063
aVAll Sons & Daughters
p1064
aVShirley Caesar
p1065
aVWithin Temptation
p1066
aVMuteMath
p1067
aVCobra Starship
p1068
aVRicky Dillon
p1069
aVAmos Lee With The Colorado Symphony
p1070
aVTonic
p1071
aVGoatwhore
p1072
aVBORNS
p1073
aVThe Mars Volta
p1074
aVDethklok
p1075
aVJessica Hernandez & The Deltas
p1076
aVLee Brice
p1077
aVSteve Martin & Edie Brickell
p1078
aVChunk! No, Captain Chunk!
p1079
aV8Ball
p1080
aVScott Stapp
p1081
aVCarole King & James Taylor
p1082
aVThe Hives
p1083
aVThe Big Pink
p1084
aVValerie June
p1085
aVTove Lo
p1086
aVJackson 5
p1087
aVDefault
p1088
aVTessanne Chin
p1089
aVGoapele
p1090
aVEve
p1091
aVFoo Fighters
p1092
aVJimmy Cliff
p1093
aVMissy "Misdemeanor" Elliott
p1094
aVEarl Sweatshirt
p1095
aVInterpol
p1096
aVSaosin
p1097
aVPrince/Bria Valente
p1098
aVVicente Fernandez
p1099
aVJ Mascis
p1100
aVThe Roots
p1101
aVTalib Kweli
p1102
aVMichael Johns
p1103
aVIn Fear And Faith
p1104
aVMadvillain
p1105
aVGorillaz
p1106
aVfor KING & COUNTRY
p1107
aVThe Boxer Rebellion
p1108
aVHoobastank
p1109
aVMAGIC!
p1110
aVk.d. lang And The Siss Boom Bang
p1111
aVEpica
p1112
aVOtep
p1113
aVSweet & Lynch
p1114
aVDiana Ross & The Supremes
p1115
aVThe Snowman
p1116
aVBob Seger
p1117
aVCourtney Barnett
p1118
aVThe Wood Brothers
p1119
aVJenny And Johnny
p1120
aVNorah Jones
p1121
aVCompany Of Thieves
p1122
aVAaron Shust
p1123
aVChristopher Owens
p1124
aVLeon Bridges
p1125
aVPeriphery
p1126
aVJeff Beck
p1127
aVEvidence
p1128
aVTaylor Swift
p1129
aVGo Radio
p1130
aVDecyfer Down
p1131
aVStacy Barthe
p1132
aVIl Volo
p1133
aVDespised Icon
p1134
aVSantigold
p1135
aVJoell Ortiz
p1136
aVNorth Point InsideOut
p1137
aVOasis
p1138
aVMac Miller
p1139
aVBig Head Todd & The Monsters
p1140
aVThe Robertsons
p1141
aVCody Canada & The Departed
p1142
aVPrimus
p1143
aVI Prevail
p1144
aVLuis Enrique
p1145
aVTrapt
p1146
aVDan + Shay
p1147
aVTank
p1148
aVLeonard Cohen
p1149
aVJason Gray
p1150
aVClay Aiken
p1151
aVR. City
p1152
aVCommitted
p1153
aVAvant
p1154
aVCassandra Wilson
p1155
aVBrian Culbertson
p1156
aVBirdman
p1157
aVStray From The Path
p1158
aVBob Schneider
p1159
aVJT Hodges
p1160
aVPhillip Phillips
p1161
aVCake
p1162
aVKings Of Convenience
p1163
aVBarlowGirl
p1164
aVFun.
p1165
aVJohn Tesh
p1166
aVKeith Sweat
p1167
aVThe Veronicas
p1168
aVAndrew Belle
p1169
aVChristy Nockels
p1170
aVVinnie Paz
p1171
aVYou Me At Six
p1172
aVSelena Gomez
p1173
aVAllison Iraheta
p1174
aVHuey Lewis & The News
p1175
aVJessica Sanchez
p1176
aVThe Black Eyed Peas
p1177
aVNicole C. Mullen
p1178
aVWill Downing
p1179
aVConnor Christian & Southern Gothic
p1180
aVTim McGraw
p1181
aVBruce Springsteen & The E Street Band
p1182
aVBill Callahan
p1183
aVFor The Fallen Dreams
p1184
aVRihanna
p1185
aVRick Ross
p1186
aVTom Petty
p1187
aVEdward Sharpe & The Magnetic Zeros
p1188
aVMiss May I
p1189
aVJosh Ritter
p1190
aVThe Offspring
p1191
aVMary Lambert
p1192
aVRapture Ruckus
p1193
aVCoal Chamber
p1194
aVHinder
p1195
aVDamien Rice
p1196
aVEgypt Central
p1197
aVSteve Martin
p1198
aVJennifer Hudson
p1199
aVStarbomb
p1200
aVPeeWee
p1201
aVEric Roberson
p1202
aVKenny Loggins
p1203
aVTom Waits
p1204
aVMarvin L Winans
p1205
aVCarolina Chocolate Drops
p1206
aVElectric Light Orchestra
p1207
aVThurston Moore
p1208
aVInfected Mushroom
p1209
aVKutless
p1210
aVSantogold
p1211
aVEverlast
p1212
aVR5
p1213
aVRuPaul
p1214
aVDuncan Sheik
p1215
aVBob Dylan
p1216
aVVince Staples
p1217
aVHank Williams, Jr.
p1218
aVThe Floacist
p1219
aVKyle
p1220
aVJanet Jackson
p1221
aVThe Vaccines
p1222
aVMary Chapin Carpenter
p1223
aVProtest The Hero
p1224
aVBetty Who
p1225
aVDeer Tick
p1226
aVPaul Rodgers
p1227
aVBeartooth
p1228
aVCharlotte Gainsbourg
p1229
aVKevin Costner & Modern West
p1230
aVAzealia Banks
p1231
aVKenny Wayne Shepherd Band
p1232
aVAmerican Bang
p1233
aVLindemann
p1234
aVBlackberry Smoke
p1235
aVNewSong
p1236
aVAndy Grammer
p1237
aVFamous Last Words
p1238
aVArctic Monkeys
p1239
aVAnthrax
p1240
aVTravie McCoy
p1241
aVMelanie Fiona
p1242
aVN.W.A.
p1243
aVLifehouse
p1244
aVMarilyn Manson
p1245
aVBroken Social Scene
p1246
aVPrince & 3RDEYEGIRL
p1247
aVLandon Pigg
p1248
aVSheppard
p1249
aVSoilwork
p1250
aVRaheem DeVaughn
p1251
aVLive
p1252
aVCovenant Worship With David & Nicole Binion, Joshua Dufrene & Colin Edge
p1253
aVPanic! At The Disco
p1254
aVWe Are Augustines
p1255
aVMali Music
p1256
aVJason Boland And The Stragglers
p1257
aVKelly Rowland
p1258
aVJustin Timberlake
p1259
aVJ Roddy Walston & The Business
p1260
aVUGK
p1261
aVSchool Gyrls
p1262
aVKem
p1263
aVTwin Forks
p1264
aVKendrick Lamar
p1265
aVWillie Nile
p1266
aVKelis
p1267
aVPusha T
p1268
aVUncle Kracker
p1269
aVBilly Joe Shaver
p1270
aVJourney
p1271
aVJoe
p1272
aVPink Martini & The Von Trapps
p1273
aVEnter Shikari
p1274
aVLincoln Brewster
p1275
aVGateway Worship
p1276
aVBand Of Skulls
p1277
aVMarty Friedman
p1278
aVEd Kowalczyk
p1279
aVPhonte
p1280
aVSuffocation
p1281
aVThe Priests
p1282
aVKids Choir
p1283
aVCorey Smith
p1284
aVLouie DeVito
p1285
aVRyan Adams & The Cardinals
p1286
aVThe Afghan Whigs
p1287
aVGrouplove
p1288
aVKarmin
p1289
aVRun The Jewels
p1290
aVEnrique Iglesias
p1291
aVLittle Angels
p1292
aVRay Price
p1293
aVAshley Monroe
p1294
aVMat Zo
p1295
aVModern Baseball
p1296
aVBrutha
p1297
aVBeach House
p1298
aVThe Lacs
p1299
aV...And You Will Know Us By The Trail Of Dead
p1300
aVThe 101 Strings Orchestra
p1301
aVCosculluela
p1302
aVLess Than Jake
p1303
aVHank Williams III
p1304
aVNatalie Maines
p1305
aVSammy Adams
p1306
aVChuck Brown & The Chuck Brown Band
p1307
aVWilliam Murphy
p1308
aVBlanca
p1309
aVWeird Al Yankovic
p1310
aVOriginal London Cast Recording
p1311
aVMandisa
p1312
aVThe Ghost Inside
p1313
aVKat Dahlia
p1314
aVNellie McKay
p1315
aVStars
p1316
aVCitizen
p1317
aVTaylor Hicks
p1318
aVTwin Shadow
p1319
aVThe Chemical Brothers
p1320
aVJohn Denver
p1321
aVBury Your Dead
p1322
aVExplosions In The Sky & David Wingo
p1323
aVRobin Schulz
p1324
aVFreelance Whales
p1325
aVAndy Williams
p1326
aVChris Cagle
p1327
aVElton John
p1328
aVVarious Artists
p1329
aVJoshua Bell
p1330
aVDeluge
p1331
aVParkway Drive
p1332
aVRyan Beatty
p1333
aVJosh Kaufman
p1334
aVObie Trice
p1335
aVDevo
p1336
aVRedlight King
p1337
aVThe Summer Set
p1338
aVEl Tigrillo Palma
p1339
aVThe Little Willies
p1340
aVMichael Kiwanuka
p1341
aVA Thousand Horses
p1342
aVJames Roberson
p1343
aVblessthefall
p1344
aVDeWayne Woods & When Singers Meet
p1345
aVSnoop Dogg
p1346
aVAtmosphere
p1347
aVPantera
p1348
aVJim James
p1349
aVBane
p1350
aVJuanita Bynum
p1351
aVBoondox
p1352
aVTinted Windows
p1353
aVMatt Redman
p1354
aVNicholas David
p1355
aVAction Item
p1356
aVJeff Dunham
p1357
aVDanger Mouse & Sparklehorse
p1358
aVBrooke Hyland
p1359
aVThe Ting Tings
p1360
aVTasha Cobbs
p1361
aVSaigon
p1362
aVMorgan Page
p1363
aVHardwell
p1364
aVThe Heavy
p1365
aVSnoop Doggy Dogg
p1366
aVSt. Vincent
p1367
aVZendaya
p1368
aVAlesana
p1369
aVTyler Carter
p1370
aVKristinia DeBarge
p1371
aVFlight Of The Conchords
p1372
aVAlice Cooper
p1373
aVG Unit
p1374
aVPaper Tongues
p1375
aVChildren Of Bodom
p1376
aVThe Mountain Goats
p1377
aVKeyshia Cole
p1378
aVWatain
p1379
aVBun-B
p1380
aVToni Braxton & Babyface
p1381
aVDominican Sisters Of Mary
p1382
aVTGT
p1383
aVDavid Crowder*Band
p1384
aVChris Robinson Brotherhood
p1385
aVRefused
p1386
aVPrince Royce
p1387
aVDanielle Bradbery
p1388
aVJoe Bonamassa
p1389
aVWhirr
p1390
aVCorrosion Of Conformity
p1391
aVTy Dolla $ign
p1392
aVk.d. lang
p1393
aVThe Crabb Family
p1394
aVJohn St. John
p1395
aVDido
p1396
aVPaul Thorn
p1397
aVTrinidad James
p1398
aVThe Willis Clan
p1399
aVPavement
p1400
aVLCD Soundsystem
p1401
aVMisfits
p1402
aVJulian Casablancas
p1403
aVGreensky Bluegrass
p1404
aVSteve Martin And The Steep Canyon Rangers
p1405
aVAll Time Low
p1406
aVKeane
p1407
aVMartha Munizzi
p1408
aVAlina Baraz & Galimatias
p1409
aVCher
p1410
aVTegan And Sara
p1411
aVAaron Neville
p1412
aVThe Horrible Crowes
p1413
aVAshanti
p1414
aVAndrew Peterson
p1415
aVJ Moss
p1416
aVBen Harper
p1417
aVDar Williams
p1418
aVSnarky Puppy & Metropole Orkest
p1419
aVAdam Lambert
p1420
aVThe xx
p1421
aVDiggy
p1422
aVGlen Hansard
p1423
aVNicki Minaj
p1424
aV'N Sync
p1425
aVCarly Rae Jepsen
p1426
aVJames Taylor
p1427
aVAt The Gates
p1428
aVKelly Clarkson
p1429
aVBoz Scaggs
p1430
aVAmanda Palmer & The Grand Theft Orchestra
p1431
aVJowell & Randy
p1432
aVKate Earl
p1433
aVTommy James And The Shondells
p1434
aVScHoolboy Q
p1435
aVGeorge Harrison
p1436
aVOFF!
p1437
aVMims
p1438
aVAs Cities Burn
p1439
aVLa Maquinaria Nortena
p1440
aVSpinal Tap
p1441
aVSarah Buxton
p1442
aV8Ball & MJG
p1443
aVDominic Balli
p1444
aVBackstreet Boys
p1445
aVDustin Lynch
p1446
aVSt. Lucia
p1447
aVAlicia Villarreal
p1448
aVKatherine Jenkins
p1449
aVRhiannon Giddens
p1450
aVZiggy Marley
p1451
aVMaranatha! Gospel
p1452
aVCasey Veggies
p1453
aVStars In Stereo
p1454
aVBobby Jones
p1455
aVChairlift
p1456
aVAudio Adrenaline
p1457
aVBethel Music
p1458
aVIce Nine Kills
p1459
aVLianne La Havas
p1460
aVPowerman 5000
p1461
aVJuicy J Of Three 6 Mafia
p1462
aVCorinne Bailey Rae
p1463
aVIsles & Glaciers
p1464
aVKeb' Mo'
p1465
aVOf Monsters And Men
p1466
aVJohn Legend & The Roots
p1467
aVKate Voegele
p1468
aVNEEDTOBREATHE
p1469
aVBad Books
p1470
aVBerner
p1471
aVGhostland Observatory
p1472
aVA Rocket To The Moon
p1473
aVLyfe Jennings
p1474
aVMidlake
p1475
aVReverend Horton Heat
p1476
aVPropagandhi
p1477
aVChristina Grimmie
p1478
aVMormon Tabernacle Choir/Orchestra At Temple Square With Natalie Cole (Wilberg)
p1479
aVTinashe
p1480
aVPat Benatar
p1481
aVThe String Cheese Incident
p1482
aVSantana
p1483
aVCharlie Wilson
p1484
aVAmber Bullock
p1485
aVLuis Coronel
p1486
aVBlack Country Communion
p1487
aVRittz
p1488
aVPoint Of Grace
p1489
aVKate Bush
p1490
aVDeitrick Haddon's LXW (League Of Xtraordinary Worshippers)
p1491
aVBilly Idol
p1492
aVThe Bouncing Souls
p1493
aVPaul McCartney And Wings
p1494
aVOur Lady Peace
p1495
aVForever Came Calling
p1496
aVSharon Van Etten
p1497
aVPaul Banks
p1498
aVAdelitas Way
p1499
aVof Montreal
p1500
aVThrowdown
p1501
aVThe Magnetic Fields
p1502
aVNeil Diamond
p1503
aVPixies
p1504
aVVertical Horizon
p1505
aVBluetree
p1506
aVShabazz Palaces
p1507
aVSabrina Carpenter
p1508
aVRob Bailey & The Hustle Standard
p1509
aVAerosmith
p1510
aVEddie Vedder
p1511
aVSisyphus
p1512
aVGregory Porter
p1513
aVB.o.B
p1514
aVSuicidal Tendencies
p1515
aVAlexis & Fido
p1516
aVThe Fray
p1517
aVChristina Aguilera
p1518
aVBurl Ives
p1519
aVCristian Castro
p1520
aVT.I.
p1521
aVAngie Stone
p1522
aVMachine Head
p1523
aVPlan B
p1524
aVNe-Yo
p1525
aVForeigner/Styx
p1526
aVShai Linne
p1527
aVCrosby, Stills, Nash & Young
p1528
aVTrailer Choir
p1529
aVMikal Cronin
p1530
aVJudy Collins
p1531
aVBenjamin Gibbard
p1532
aVJohn Mayer
p1533
aVKevin "K.O." Olusola
p1534
aVMack Wilds
p1535
aVMiggs
p1536
aVCHON
p1537
aVGranger Smith
p1538
aVNine Lashes
p1539
aVUmphrey's McGee
p1540
aVWe Came As Romans
p1541
aVAce Hood
p1542
aVFaith Evans
p1543
aVGrateful Dead
p1544
aVBilly Joel
p1545
aVChris Thile
p1546
aVSherwood
p1547
aVScar The Martyr
p1548
aVBruce Springsteen
p1549
aVMarques Houston
p1550
aVFrank Foster
p1551
aVStone Sour
p1552
aVEarth, Wind & Fire
p1553
aVBo Bice
p1554
aVPepper
p1555
aVJustin Townes Earle
p1556
aVFleet Foxes
p1557
aVPatty Griffin
p1558
aVElle Varner
p1559
aVThe Dirty Guv'nahs
p1560
aVDayshell
p1561
aVThe Rapture
p1562
aVScotty McCreery
p1563
aVTyphoon
p1564
aVPaulina Rubio
p1565
aVThe Dirty Heads
p1566
aVBlack Milk
p1567
aVThe Raveonettes
p1568
aVHeather Headley
p1569
aVJonathan Nelson
p1570
aVLos Lobos
p1571
aVAer
p1572
aVBarry Manilow
p1573
aVCold War Kids
p1574
aVFrank Ocean
p1575
aVKiller Mike
p1576
aVOur Last Night
p1577
aVJulian Plenti
p1578
aVSimon & Garfunkel
p1579
aVCitizen Cope
p1580
aVSanctus Real
p1581
aVPolyphia
p1582
aVCeltic Woman
p1583
aVRegina Spektor
p1584
aVCandlebox
p1585
aVRenee Fleming
p1586
aVwill.i.am
p1587
aVSia
p1588
aVConverge
p1589
aVGojira
p1590
aVFree-man
p1591
aVThe Grascals
p1592
aVDeep ?urp!e
p1593
aVBlake Lewis
p1594
aVFoxy Shazam
p1595
aVJasta
p1596
aVDream Theater
p1597
aVFair To Midland
p1598
aVBen Folds/Nick Hornby
p1599
aVAmon Amarth
p1600
aVVan Halen
p1601
aVBig Smo
p1602
aVTennis
p1603
aVDJ Poet Name Life
p1604
aVThe Growlers
p1605
aVFrank Sinatra
p1606
aVLee Greenwood
p1607
aVMark Ronson & The Business Intl
p1608
aVBlind Pilot
p1609
aVShwayze And Cisco
p1610
aVCeline Dion
p1611
aVTesla
p1612
aVDr. Dre
p1613
aVMystery Skulls
p1614
aVThe Devil Makes Three
p1615
aVTorche
p1616
aVTokyo Police Club
p1617
aVFather John Misty
p1618
aVFourplay
p1619
aVMannheim Steamroller With Members Of The Czech Philharmonic Orchestra
p1620
aVDash Berlin
p1621
aVLisa Hannigan
p1622
aVTrust Company
p1623
aVFrank Turner
p1624
aVHighlands Worship
p1625
aVLucero
p1626
aVBuddy & Julie Miller
p1627
aVTodd Terje
p1628
aVAustrian Death Machine
p1629
aVBanks
p1630
aVPeter Frampton
p1631
aVCat Power
p1632
aVBrendan James
p1633
aVKaskade
p1634
aVDeath Angel
p1635
aVSelena Gomez & The Scene
p1636
aVRusko
p1637
aVEdens Edge
p1638
aVBoosie BadAzz
p1639
aVDragonForce
p1640
aVBlaqk Audio
p1641
aVThe Doors
p1642
aVBullet For My Valentine
p1643
aVTrin-i-tee 5:7
p1644
aVJason Aldean
p1645
aVHundredth
p1646
aVEXO
p1647
aVRicky Dillard And New G
p1648
aVSaving Abel
p1649
aVEmblem3
p1650
aVLauren Daigle
p1651
aVVictor Manuelle
p1652
aVPink
p1653
aVRoyksopp & Robyn
p1654
aVFoster The People
p1655
aVRevocation
p1656
aVMike Stud
p1657
aVBow Wow
p1658
aVTravis Cottrell
p1659
aVThe New Pornographers
p1660
aVEric Hutchinson
p1661
aVAlicia Keys
p1662
aVJohnnyswim
p1663
aVD'Angelo And The Vanguard
p1664
aVB.G.
p1665
aVBen Howard
p1666
aVEvans Blue
p1667
aVNick Cave & The Bad Seeds
p1668
aVPaul McCartney
p1669
aVTracy Lawrence
p1670
aVTravis Barker
p1671
aVMiles Davis Quintet
p1672
aVMotorhead
p1673
aVGary Clark, Jr.
p1674
aVCalvin Harris
p1675
aVFIDLAR
p1676
aVMetal Allegiance
p1677
aVLuther Vandross
p1678
aVJeezy
p1679
aVTokio Hotel
p1680
aVDanny Gokey
p1681
aVPhantogram
p1682
aVHoodie Allen
p1683
aVWaka Flocka Flame
p1684
aVM. Ward
p1685
aVShaggy
p1686
aVOtis Redding
p1687
aVAndrea Helms
p1688
aVKodaline
p1689
aVFuturistic
p1690
aVDan Deacon
p1691
aVNile
p1692
aVSunset Rubdown
p1693
aVDJ Skribble
p1694
aVAaron West And The Roaring Twenties
p1695
aVMGMT
p1696
aVThe Starlite Orchestra And Singers
p1697
aVRoberto Tapia
p1698
aVMatthew Sweet And Susanna Hoffs
p1699
aVMorbid Angel
p1700
aVBillie Joe + Norah
p1701
aVRachael Yamagata
p1702
aVLenny Cooper
p1703
aVDeath Grips
p1704
aVGrace Potter
p1705
aVSea Wolf
p1706
aVSTRFKR
p1707
aVThe Black Crowes
p1708
aVEric Church
p1709
aVDark Lotus
p1710
aVErra
p1711
aVLil Wayne
p1712
aVThe Chariot
p1713
aVJJ Grey & MOFRO
p1714
aVDavid Archuleta
p1715
aVBrandi Carlile With The Seattle Symphony
p1716
aVAmy Grant
p1717
aVLos Temerarios
p1718
aVPeggy Lee
p1719
aVForeigner
p1720
aVLaura Veirs
p1721
aVTerror
p1722
aVChris Cornell
p1723
aVTyga
p1724
aVFar*East Movement
p1725
aVBryan Adams
p1726
aVA Lot Like Birds
p1727
aVBlack Mike & QB Productions
p1728
aVHow To Destroy Angels
p1729
aVNOFX
p1730
aVTimes Of Grace
p1731
aVJoy Williams
p1732
aVLissie
p1733
aVMew
p1734
aVGhost Town
p1735
aVNo Doubt
p1736
aVJoe Satriani
p1737
aVWashed Out
p1738
aVThe Clarks
p1739
aVDean Brody
p1740
aVLindsey Buckingham
p1741
aVEvery Time I Die
p1742
aVKenny G
p1743
aVElevation Worship
p1744
aVHezekiah Walker & LFC
p1745
aVBIzzle
p1746
aVHard Working Americans
p1747
aVEd Sheeran
p1748
aVRickie Lee Jones
p1749
aVHollywood Vampires
p1750
aVCaleb Johnson
p1751
aVThe Budos Band
p1752
aVDirty Heads
p1753
aVTesseract
p1754
aVDangerkids
p1755
aVYo-Yo Ma
p1756
aVLenka
p1757
aVNewsted
p1758
aVMatisyahu
p1759
aVKnife Party
p1760
aVTransit
p1761
aVThe Lox
p1762
aVWebbie
p1763
aVAphex Twin
p1764
aVSam Smith
p1765
aVAs I Lay Dying
p1766
aVCam'ron & Vado
p1767
aVDestroy Rebuild Until God Shows
p1768
aVShakira
p1769
aVOpeth
p1770
aVJohn P. Kee
p1771
aVLe'Andria Johnson
p1772
aVMinus The Bear
p1773
aVClyde Bawden And Jason Barney
p1774
aVCivil Twilight
p1775
aVCrystal Castles
p1776
aVElvis Costello
p1777
aVNew Medicine
p1778
aVJ.J. Hairston & Youthful PRaise
p1779
aVJoanna Newsom
p1780
aVToro y Moi
p1781
aVBone Thugs-N-Harmony
p1782
aVBrooke Hogan
p1783
aVRonnie Milsap
p1784
aVThe Faint
p1785
aVFraming Hanley
p1786
aVPaul Simon
p1787
aVArt Of Dying
p1788
aVThe Cult
p1789
aVExodus
p1790
aVJohn Fogerty
p1791
aVRegulo Caro
p1792
aVFear Factory
p1793
aVNF
p1794
aVLykke Li
p1795
aVRay Charles
p1796
aVState Radio
p1797
aVJimmy Fallon
p1798
aVStoney LaRue
p1799
aVWaxahatchee
p1800
aVDr. Dog
p1801
aV2Pac
p1802
aVMan Man
p1803
aVThis Providence
p1804
aVLaura Mvula
p1805
aVMike Gordon
p1806
aVV.V. Brown
p1807
aVMarc Anthony
p1808
aVPeter Furler
p1809
aVDan Fogelberg
p1810
aVThe Monkees
p1811
aVWavves
p1812
aVChuck Berry
p1813
aVBob Marley And The Wailers
p1814
aVTamia
p1815
aVLiars
p1816
aVDimmu Borgir
p1817
aVStrung Out
p1818
aVJohnny Cash/Willie Nelson
p1819
aVRodriguez
p1820
aVSleater-Kinney
p1821
aVWilliam Fitzsimmons
p1822
aVRoyal Blood
p1823
aVThe Flaming Lips
p1824
aVM.I.A.
p1825
aVThe Expendables
p1826
aVHey Violet
p1827
aVBen Kweller
p1828
aVCapone -N- Noreaga
p1829
aVLaura Story
p1830
aVLa  Quinta Estacion
p1831
aVMurderdolls
p1832
aVHellogoodbye
p1833
aVUtada
p1834
aVRico Love
p1835
aVShekinah Glory Ministry
p1836
aVThe Cranberries
p1837
aVThursday
p1838
aV"Weird Al" Yankovic
p1839
aVDavid Allan Coe
p1840
aVBanda Sinaloense MS de Sergio Lizarraga
p1841
aVArt Garfunkel
p1842
aVPaolo Nutini
p1843
aVZola Jesus
p1844
aVAndrew McMahon In The Wilderness
p1845
aVRobert Earl Keen
p1846
aVClay Walker
p1847
aVMonica
p1848
aVRoscoe Dash
p1849
aVCarcass
p1850
aVBruno Mars
p1851
aVLinda Ronstadt
p1852
aVRumer
p1853
aVBlake Shelton
p1854
aVKip Moore
p1855
aVSammy Hagar & The Circle
p1856
aVKeith Harkin
p1857
aVAlexis Spight
p1858
aVGretchen Wilson
p1859
aVThe Afters
p1860
aVDa' T.R.U.T.H.
p1861
aVScott Walker + Sunn O)))
p1862
aVFossil Collective
p1863
aVMeat Loaf
p1864
aVTwo Tongues
p1865
aVJames Labrie
p1866
aVDeftones
p1867
aVJoey Bada$$
p1868
aVNathaniel Rateliff & The Night Sweats
p1869
aVMatt Kennon
p1870
aVMarlene Brehm
p1871
aVQueens Of The Stone Age
p1872
aVMeek Mill
p1873
aVHezekiah Walker
p1874
aVJeremih
p1875
aVMonsters Of Folk
p1876
aVDeJ Loaf
p1877
aVToby Keith
p1878
aVMazzy Star
p1879
aVTransplants
p1880
aVMickey Avalon
p1881
aVOzzy Osbourne
p1882
aVGirls' Generation
p1883
aVEl Dasa
p1884
aVSwindoe
p1885
aVDJ Quik
p1886
aVBraid
p1887
aVTonight Alive
p1888
aVMiranda Cosgrove
p1889
aVJungle
p1890
aVSZA
p1891
aVCommodores
p1892
aVJohn Frusciante
p1893
aVMichael Bolton
p1894
aVQuadron
p1895
aVBarry Manilow With The Royal Philharmonic Concert Orchestra
p1896
aVVertical Church Band
p1897
aVBea Miller
p1898
aVBrett Dennen
p1899
aVBret Michaels
p1900
aVJonathan Coulton
p1901
aVAna Isabelle
p1902
aVBruckner Orchester Linz Conducted By Dennis Russell Davies
p1903
aVKutt Calhoun
p1904
aVGirls' Generation - TTS
p1905
aVPorcupine Tree
p1906
aVK'Jon
p1907
aVAlessia Cara
p1908
aVJon Batiste And Stay Human
p1909
aVGerald Albright
p1910
aVMelody Gardot
p1911
aVThe Vamps
p1912
aVChrisette Michele
p1913
aVPreservation Hall Jazz Band
p1914
aVCathedrals
p1915
aVSoil
p1916
aVShawn McDonald
p1917
aVStyles P
p1918
aVTony Bennett & Bill Charlap
p1919
aVMike Jones
p1920
aVRodney Atkins
p1921
aVTimbaland
p1922
aVAubrey O'Day
p1923
aVJason Lancaster
p1924
aVSent By Ravens
p1925
aVBlonde Redhead
p1926
aVMagic Man
p1927
aVBoards Of Canada
p1928
aVThe Nashville Tribute Band
p1929
aVRocco DeLuca And The Burden
p1930
aVTomahawk
p1931
aVThe Countdown Singers And Orchestra
p1932
aVChase Rice
p1933
aVSmokie Norful Presents: Victory Cathedral Choir
p1934
aVTravis Porter
p1935
aVKathy Taylor
p1936
aVPaul Wall
p1937
aVEdnita Nazario
p1938
aVAmerican Authors
p1939
aVTierra Cali
p1940
aVThe Doobie Brothers
p1941
aVKierra Sheard
p1942
aVFor Today
p1943
aVKatatonia
p1944
aVDiana Krall Featuring The Clayton/Hamilton Jazz Orchestra
p1945
aVParamore
p1946
aVAvicii
p1947
aVMatt Wertz
p1948
aVAlkaline Trio
p1949
aVGogol Bordello
p1950
aVSystem Of A Down
p1951
aVKrewella
p1952
aVJakob Dylan
p1953
aVTalking Heads
p1954
aVPaul & Linda McCartney
p1955
aVGood Charlotte
p1956
aVTrisha Yearwood
p1957
aVChristian Kane
p1958
aVBruce Hornsby And The Noisemakers
p1959
aVDum Dum Girls
p1960
aVDillon Francis
p1961
aVDrop Dead, Gorgeous
p1962
aVJarren Benton
p1963
aVCharlie Worsham
p1964
aVCarolina Liar
p1965
aVThrice
p1966
aVRyan Star
p1967
aVTribal Seeds
p1968
aVDerek Webb
p1969
aVYeah Yeah Yeahs
p1970
aVPhil Wickham With Kari Jobe, Shane & Shane & Jeremy Riddle
p1971
aVDaryl Hall  John Oates
p1972
aVGregg Allman
p1973
aVLimp Bizkit
p1974
aVThe Black Angels
p1975
aVPress Play
p1976
aVTrey Anastasio
p1977
aVRush
p1978
aVThe Lemonheads
p1979
aVStorm Corrosion
p1980
aVWe Are The Fallen
p1981
aVDuran Duran
p1982
aVAriel Pink's Haunted Graffiti
p1983
aVLos Creadorez Del Pasito Duranguense De Alfredo Ramirez
p1984
aVMike Doughty
p1985
aVRoss Lynch
p1986
aVLee Strobel
p1987
aVLa Coka Nostra
p1988
aVVince Gill
p1989
aVMe First And The Gimme Gimmes
p1990
aVSick Puppies
p1991
aVWeezer
p1992
aVJay Sean
p1993
aVJonny Lang
p1994
aVJohn Travolta & Olivia Newton-John
p1995
aVJeff Lynne
p1996
aVCrowder
p1997
aVThievery Corporation
p1998
aVChriston Gray
p1999
aVWZRD
p2000
aVLIGHTS
p2001
aVGoo Goo Dolls
p2002
aVOh, Sleeper
p2003
aVThompson Square
p2004
aVP Reign
p2005
aVThe Bangles
p2006
aVBryson Tiller
p2007
aVtobyMac
p2008
aVFreddie Gibbs & Madlib
p2009
aVConor Maynard
p2010
aVFrnkiero AndThe Cellebration.
p2011
aVAsia
p2012
aVKellie Pickler
p2013
aVSteve Holy
p2014
aVTwenty One Pilots
p2015
aVPapa Roach
p2016
aVSara Groves
p2017
aVDailey & Vincent
p2018
aVPrince And The Revolution
p2019
aVN*E*R*D
p2020
aVRandy Rogers Band
p2021
aVI The Breather
p2022
aVJ Alvarez
p2023
aVBaroness
p2024
aVCat Stevens
p2025
aVJekalyn Carr
p2026
aVJa Rule
p2027
aVThe Kooks
p2028
aVAttack Attack!
p2029
aVChildish Gambino
p2030
aVR.A The Rugged Man
p2031
aVCourt Yard Hounds
p2032
aVJunkie XL
p2033
aVTobacco
p2034
aVEisley
p2035
aVHot Chip
p2036
aVShania Twain
p2037
aVNew York Dolls
p2038
aVFlying Colors
p2039
aVTom Petty And The Heartbreakers
p2040
aVNew Politics
p2041
aVBob Dylan And The Band
p2042
aVAllstar Weekend
p2043
aVSanctuary
p2044
aVPaul Baloche
p2045
aVWynton Marsalis & Eric Clapton
p2046
aVOzomatli
p2047
aVFozzy
p2048
aVCarly Simon
p2049
aVTwo Gallants
p2050
aVDerek Minor
p2051
aVThe Civil Wars
p2052
aVThe Grouch & Eligh
p2053
aVPete Yorn
p2054
aVMuddy Waters
p2055
aVAlexisOnFire
p2056
aVJose Gonzalez
p2057
aVThe Mavericks
p2058
aVThy Art Is Murder
p2059
aVJosh Garrels
p2060
aVColdplay
p2061
aVJackson Browne
p2062
aVTyrone Wells
p2063
aVThe ARCS
p2064
aVJames Fortune & FIYA
p2065
aVBig Boi
p2066
aVSkrillex & Diplo
p2067
aVGucci Mane
p2068
aVTyler Farr
p2069
aVJeff LaBar
p2070
aVPleasure P
p2071
aVLarry The Cable Guy
p2072
aVThundercat
p2073
aVPeter Bjorn And John
p2074
aVMormon Tabernacle Choir/Orchestra At Temple Square Feat. David Archuleta With Michael York
p2075
aVDAY26
p2076
aVDaniel Tosh
p2077
aVKeith Urban
p2078
aVVaShawn Mitchell
p2079
aVThe Get Up Kids
p2080
aViwrestledabearonce
p2081
aVCowboy Junkies
p2082
aVLauryn Hill
p2083
aVSeth Walker
p2084
aVKenny Rogers & Dolly Parton
p2085
aVLa Dispute
p2086
aVDoomtree
p2087
aVJapandroids
p2088
aVJay Rock
p2089
aVLondon Philharmonic Orchestra
p2090
aVRend Collective Experiment
p2091
aVFat Joe
p2092
aVJake Owen
p2093
aVLos Tigres Del Norte
p2094
aVK Camp
p2095
aVSeventh Day Slumber
p2096
aVTaintstick
p2097
aVThe Fratellis
p2098
aVThe Laurie Berkner Band
p2099
aVWaylon Jennings
p2100
aVImpending Doom
p2101
aVChino & Nacho
p2102
aVSmith & Myers
p2103
aVPJ Harvey
p2104
aVArmored Saint
p2105
aVSeal
p2106
aVMelinda Doolittle
p2107
aVToo $hort
p2108
aVSerena Ryder
p2109
aVDon Henley
p2110
aVSage Francis
p2111
aVDJ Drama
p2112
aVRod Stewart
p2113
aVBig Kenny
p2114
aVKillswitch Engage
p2115
aVOkkervil River
p2116
aVThe Whispers
p2117
aVJason Mraz
p2118
aVArcangel
p2119
aVRodrigo y Gabriela
p2120
aVPriscilla Ahn
p2121
aVFM Static
p2122
aVNorth Mississippi Allstars
p2123
aVEnya
p2124
aVDanger Mouse & Daniele Luppi Starring Jack White & Norah Jones
p2125
aVCounterparts
p2126
aVGiorgio Moroder
p2127
aVKeb Mo
p2128
aVSon Volt
p2129
aVJosh Groban
p2130
aVIan Hunter And The Rant Band
p2131
aVMarcus Miller
p2132
aVWilco
p2133
aVWar Of Ages
p2134
aVBreaking Benjamin
p2135
aVPierce The Veil
p2136
aVBas
p2137
aVYelaWolf
p2138
aVAndrae Crouch
p2139
aVBo Burnham
p2140
aVCracker
p2141
aVBlack Lips
p2142
aVThe Baby Einstein Music Box Orchestra
p2143
aVJoey + Rory
p2144
aVThe Black Keys
p2145
aVEli Young Band
p2146
aVCalibre 50
p2147
aVGeorge Thorogood And The Destroyers
p2148
aVBill Withers
p2149
aVJJ Lawhorn
p2150
aVThe Postal Service
p2151
aVCharlie Puth
p2152
aVGin Blossoms
p2153
aVIron Maiden
p2154
aVFoy Vance
p2155
aVYoung The Giant
p2156
aVMellowHype
p2157
aVAlejandro Fernandez
p2158
aVParachute
p2159
aVEagles Of Death Metal
p2160
aVLove And Theft
p2161
aVSilverstein
p2162
aVEaston Corbin
p2163
aVJimmy Buffett
p2164
aVSara Bareilles
p2165
aVSevyn Streeter
p2166
aV10 Years
p2167
aVAlex Clare
p2168
aVThe White Stripes
p2169
aVAudrey Assad
p2170
aVTom Petty & The Heartbreakers
p2171
aVElle King
p2172
aVFrom Indian Lakes
p2173
aVAnberlin
p2174
aVEXO-K
p2175
aVKSM
p2176
aVBalance And Composure
p2177
aVAngel Olsen
p2178
aVPhosphorescent
p2179
aVSarah McLachlan
p2180
aVDavid Gilmour
p2181
aVErnie Haase And Signature Sound
p2182
aVKirk Franklin
p2183
aVGreyson Chance
p2184
aVNelly
p2185
aVPhillips, Craig & Dean
p2186
aVDoom
p2187
aVSOJA
p2188
aVKristin Chenoweth
p2189
aVJessie James
p2190
aVDaniel Rossen
p2191
aVNoah And The Whale
p2192
aVBlaze Ya Dead Homie
p2193
aVJerrod Niemann
p2194
aVColton Dixon
p2195
aVButch Walker
p2196
aVThe 2015 Broadway Cast Recording
p2197
aVEstelle
p2198
aVJuan Luis Guerra 4.40
p2199
aVDrama
p2200
aVThe Black Dahlia Murder
p2201
aVNeon Trees
p2202
aVCherub
p2203
aVPropaganda
p2204
aVLinkin Park
p2205
aVODESZA
p2206
aVWilliam Shatner
p2207
aVChristina Perri
p2208
aVMGK
p2209
aVSlim Thug
p2210
aVR.E.M.
p2211
aVMisterWives
p2212
aVRevolution Saints
p2213
aVLMFAO
p2214
aVLeToya
p2215
aVJukebox The Ghost
p2216
aVChevelle
p2217
aVReal Estate
p2218
aVO.A.R.
p2219
aVDavid Gray
p2220
aVM83.
p2221
aVMenomena
p2222
aVWilliam Beckett
p2223
aVJoan Jett And The Blackhearts
p2224
aVThe Broadway Cast Recording
p2225
aVDavid Cook
p2226
aVThe Hit Crew
p2227
aVToni Braxton
p2228
aVJennifer Nettles
p2229
aVThe Dave Brubeck Quartet
p2230
aVJamey Johnson
p2231
aVJames McMurtry
p2232
aVScissor Sisters
p2233
aVBryan Ferry
p2234
aVDoris Day
p2235
aVRobert Plant / Alison Krauss
p2236
aVJohn Prine
p2237
aVThe Tenors
p2238
aVDane Cook
p2239
aVChiodos
p2240
aVHey Monday
p2241
aVSt. Paul & The Broken Bones
p2242
aVCarnifex
p2243
aVLike A Storm
p2244
aVAlan Jackson
p2245
aVThe Earls Of Leicester
p2246
aVDon Williams
p2247
aVTravi$ Scott
p2248
aVViolent J
p2249
aVBritt Nicole
p2250
aVSnoop Lion
p2251
aVSoMo
p2252
aVEl Trono De Mexico
p2253
aVFetty Wap
p2254
aVThe Horrors
p2255
aVBelle And Sebastian
p2256
aVRancid
p2257
aVSlayer
p2258
aVThe Almost
p2259
aVShake The Nation
p2260
aVMatt Hires
p2261
aVNevermore
p2262
aVThird Day
p2263
aVTimeflies
p2264
aVPlayaz Circle
p2265
aV3 Inches Of Blood
p2266
aVKavinsky
p2267
aVGucci Mane & Waka Flocka Flame
p2268
aVNatalie Grant
p2269
aVDorinda Clark-Cole
p2270
aVBeverly Crawford
p2271
aVNew Kids On The Block
p2272
aVJ. Cole
p2273
aVI Am The Avalanche
p2274
aVDiana Krall
p2275
aVTracey Thorn
p2276
aVCharles Bradley
p2277
aVDark Tranquillity
p2278
aVProject 86
p2279
aVMichelle Williams
p2280
aVThe Maine
p2281
aVStevie Nicks
p2282
aVArcade Fire
p2283
aVTrip Lee
p2284
aVRodney Carrington
p2285
aVLily Allen
p2286
aVMobb Deep
p2287
aVForever The Sickest Kids
p2288
aVBlake Mills
p2289
aVBeth Hart And Joe Bonamassa
p2290
aVRoy Orbison
p2291
aVAretha
p2292
aVThe Friday Night Boys
p2293
aVRodrigo y Gabriela And C.U.B.A.
p2294
aVSarah Jarosz
p2295
aVMiles Davis
p2296
aVFive For Fighting
p2297
aVKeith Richards
p2298
aVSolange
p2299
aVYo La Tengo
p2300
aVBrandy Clark
p2301
aVThe Hit Crew Kids
p2302
aVJosh Thompson
p2303
aVGreeley Estates
p2304
aVPink Martini
p2305
aVJuan Luis Guerra 440
p2306
aVThe Wanted
p2307
aVAlgebra Blessett
p2308
aVKelsea Ballerini
p2309
aVMark Knopfler
p2310
aVThe Canadian Tenors
p2311
aVButch Walker And The Black Widows
p2312
aVYoung Jeezy
p2313
aVWe Are Harlot
p2314
aVJeremy Camp
p2315
aVFight Or Flight
p2316
aVBody Count
p2317
aVCommon
p2318
aVLeCrae
p2319
aVDon Omar
p2320
aVRBD
p2321
aVJoe Jonas
p2322
aVZacardi Cortez
p2323
aVthe bird and the bee
p2324
aVTLC
p2325
aVSkillet
p2326
aVA Day To Remember
p2327
aVBroods
p2328
aVBetter Than Ezra
p2329
aVMac DeMarco
p2330
aVDas Racist
p2331
aVLudo
p2332
aVJamie Cullum
p2333
aVJesus Culture With Martin Smith
p2334
aVFountains Of Wayne
p2335
aVBon Jovi
p2336
aVDoobie Brothers
p2337
aVThe Original 7ven
p2338
aVGerman Montero
p2339
aVFuture Islands
p2340
aVBattlecross
p2341
aVBorgore
p2342
aVPennywise
p2343
aVMark Lanegan Band
p2344
aVMarianne Faithfull
p2345
aVKe$ha
p2346
aVBen Folds
p2347
aVPharrell Williams
p2348
aVKaki King
p2349
aVBilal
p2350
aVDisciple
p2351
aVCreedence Clearwater Revival
p2352
aVRomeo Santos
p2353
aVClipse
p2354
aVCole Swindell
p2355
aVMatt And Kim
p2356
aVMellowHigh
p2357
aVAnthony Jeselnik
p2358
aVSmith Westerns
p2359
aVAll That Remains
p2360
aVDuffy
p2361
aVSpiritualized
p2362
aVDonny Osmond
p2363
aVDeon Kipping
p2364
aVRichard Marx
p2365
aVFall Out Boy
p2366
aVCity And Colour
p2367
aVMyChildren, MyBride
p2368
aVIndigo Girls
p2369
aVTweedy
p2370
aVOtherwise
p2371
aVJoshua Davis
p2372
aVTamar Braxton
p2373
aVVolcano Choir
p2374
aVJustin Moore
p2375
aVDonald Lawrence & Co.
p2376
aVKylesa
p2377
aVW.A.S.P.
p2378
aVJack Johnson
p2379
aVBleeding Through
p2380
aVStevie Ray Vaughan And Double Trouble
p2381
aVTemples
p2382
aVTrigger Hippy
p2383
aVMr. Big
p2384
aVCody Canada And The Departed
p2385
aVStory Of The Year
p2386
aVSaint Asonia
p2387
aVDaddy Yankee
p2388
aVJoe Cocker
p2389
aVNERO
p2390
aVB-Real
p2391
aVRadiohead
p2392
aVSmokie Norful
p2393
aVSleigh Bells
p2394
aVKim Burrell
p2395
aVJulion Alvarez y Su Norteno Banda
p2396
aVUnearth
p2397
aVEmmylou Harris & Rodney Crowell
p2398
aVSixx: A.M.
p2399
aVCasey Abrams
p2400
aVfor King & Country
p2401
aVBrendan Benson
p2402
aV311
p2403
aVJo Dee Messina
p2404
aVThe Early November
p2405
aVAsking Alexandria
p2406
aVDesperation Band
p2407
aVMatt Maher
p2408
aVPoison The Well
p2409
aVFallujah
p2410
aVJane's Addiction
p2411
aVJerry Clower
p2412
aVKat Edmonson
p2413
aVProject Pat
p2414
aVAmanda Cook
p2415
aVBob Mould
p2416
aVThe Aquabats!
p2417
aVFeist
p2418
aVAdele
p2419
aVSenses Fail
p2420
aVMormon Tabernacle Choir/Orchestra At Temple Square (Wilberg)
p2421
aVCarman
p2422
aVTig Notaro
p2423
aVPallbearer
p2424
aVJenni Rivera
p2425
aVAllen Stone
p2426
aVletlive.
p2427
aVThe Knife
p2428
aVBlood Orange
p2429
aVMeghan Trainor
p2430
aVMogwai
p2431
aVLuke James
p2432
aVBorn Of Osiris
p2433
aVThe Animals
p2434
aVBrian McKnight
p2435
aVExplosions In The Sky
p2436
aVHopsin
p2437
aVR. Kelly
p2438
aVT-Pain
p2439
aVFlobots
p2440
aVDJ Enferno
p2441
aVKix Brooks
p2442
aVSara Ramirez
p2443
aVBebo Norman
p2444
aVNew Boyz
p2445
aVMorrissey
p2446
aVThe Underachievers
p2447
aVAntony And The Johnsons
p2448
aVShane & Shane
p2449
aVKacey Musgraves
p2450
aVSomething Corporate
p2451
aVSebastian Mikael
p2452
aVGreat Big Sea
p2453
aVYes
p2454
aVLouis Armstrong
p2455
aVSharon Jones & The Dap-Kings
p2456
aVState Champs
p2457
aV3BallMTY
p2458
aVNeil Young
p2459
aVRilo Kiley
p2460
aVFistful Of Mercy
p2461
aVGarth Brooks
p2462
aVDestiny's Child
p2463
aVPat Metheny
p2464
aVTobias Jesso Jr.
p2465
aVDonnie McClurkin
p2466
aVThird Eye Blind
p2467
aVIsrael Houghton
p2468
aVLL Cool J
p2469
aVByron Cage
p2470
aVBilly Currington
p2471
aVWar
p2472
aVErasure
p2473
aVThe Rentals
p2474
aVBooker T.
p2475
aVNeedtobreathe
p2476
aVGary Clark Jr.
p2477
aVMichael Grimm
p2478
aVCrooked  X
p2479
aVMethod Man
p2480
aVTwo Steps From Hell
p2481
aVTrain
p2482
aVMethods Of Mayhem
p2483
aVDJ Holiday + Gucci Mane
p2484
aVMayday Parade
p2485
aVDokken
p2486
aVEno / Hyde
p2487
aVCut /// Copy
p2488
aVAndra Day
p2489
aVAaron Gillespie
p2490
aVREO Speedwagon
p2491
aVJuvenile
p2492
aVDave Matthews Band
p2493
aVRoger Clyne & The Peacemakers
p2494
aVAndrea Bocelli
p2495
aVThe Dodos
p2496
aVStephen Marley
p2497
aVDierks Bentley
p2498
aVKid Rock & The Twisted Brown Trucker Band
p2499
aVKeri Hilson
p2500
aVKRS-One & Buckshot
p2501
aVWu-Tang/Mathematics
p2502
aVThe Contortionist
p2503
aVBassnectar
p2504
aVAnamanaguchi
p2505
aVTaproot
p2506
aVYo Gotti
p2507
aVJudah & The Lion
p2508
aVThomas Rhett
p2509
aVKindred The Family Soul
p2510
aVCold
p2511
aVFoals
p2512
aVIcon For Hire
p2513
aVThe-Dream
p2514
aVWanda Jackson
p2515
aVKevin Devine
p2516
aVThe Spill Canvas
p2517
aVDavid Crosby
p2518
aVSebadoh
p2519
aVBeastie Boys
p2520
aVAimee Mann
p2521
aVTito "El Bambino"
p2522
aVRaekwon
p2523
aVSlash
p2524
aVRhonda Vincent
p2525
aVBig Head Todd And The Monsters
p2526
aVAziz Ansari
p2527
aVThi'sl
p2528
aVCee Lo Green
p2529
aVThe Kills
p2530
aVRonald Isley
p2531
aVKurt Vile
p2532
aVBat For Lashes
p2533
aVThe New Basement Tapes
p2534
aVJonas Brothers
p2535
aVLecrae
p2536
aVJP, Chrissie & The Fairground Boys
p2537
aVCharli XCX
p2538
aVHillsong UNITED
p2539
aVThe Wallflowers
p2540
aVThalia
p2541
aVJaron And The Long Road To Love
p2542
aVDemi Lovato
p2543
aVNinja Sex Party
p2544
aVTwo Door Cinema Club
p2545
aVThe Countdown Singers
p2546
aVFranco De Vita
p2547
aVSugar Ray
p2548
aVRichard Thompson
p2549
aVYoung Dro
p2550
aVDiane Birch
p2551
aVJennifer Lopez
p2552
aVSlaine
p2553
aVKix
p2554
aVDrake
p2555
aVDeerhunter
p2556
aVTech N9ne
p2557
aVDean Martin
p2558
aVLeona Lewis
p2559
aVRatt
p2560
aVMana
p2561
aVSleeping With Sirens
p2562
aVPat Green
p2563
aVCandice Glover
p2564
aVCirca Survive
p2565
aVThirty Seconds To Mars
p2566
aVAugustines
p2567
aVBeBe & CeCe Winans
p2568
aVRandy Rogers & Wade Bowen
p2569
aVCartel
p2570
aVLuis Miguel
p2571
aVPuss N Boots
p2572
aVCopeland
p2573
aVKristian Bush
p2574
aVPercy Sledge
p2575
aVNas & Damian Marley
p2576
aVBernie Williams
p2577
aVWisin
p2578
aVJoshua Rogers
p2579
aVWe Were Promised Jetpacks
p2580
aVWade Bowen
p2581
aVBad Suns
p2582
aVRyan Bingham & The Dead Horses
p2583
aVMeiko
p2584
aVThe Green
p2585
aVThe Letter Black
p2586
aVTamela Mann
p2587
aVTiesto
p2588
aVGinuwine
p2589
aVTony Bennett
p2590
aVThe Rides
p2591
aVLorde
p2592
aVNo Bragging Rights
p2593
aVGlasvegas
p2594
aVSunny Sweeney
p2595
aVNever Shout Never
p2596
aVThree Dog Night
p2597
aVRend Collective
p2598
aVTaeYang
p2599
aVHatebreed
p2600
aVNatalia Jimenez
p2601
aVSnoop Dogg & Wiz Khalifa
p2602
aVDio
p2603
aVTortoise
p2604
aVLionel Richie
p2605
aVBuilding 429
p2606
aVG-Dragon
p2607
aVRaeLynn
p2608
aVAir
p2609
aVRival Sons
p2610
aVMotionless In White
p2611
aVHeffron Drive
p2612
aVCrystal Bowersox
p2613
aVAni DiFranco
p2614
aVDave Barnes
p2615
aVAmerie
p2616
aVDavid Bazan
p2617
aVFranz Ferdinand
p2618
aVHollywood Undead
p2619
aVDawes
p2620
aVBlack Label Society
p2621
aVSocial Distortion
p2622
aVRobyn
p2623
aVWhenever, If Ever
p2624
aVJames Morrison
p2625
aVImagine Dragons
p2626
aVDeep Purple
p2627
aVDaft Punk
p2628
aVJoshua Ledet
p2629
aVFlying Lotus
p2630
aVHunter Hayes
p2631
aVJason Crabb
p2632
aVBuilt To Spill
p2633
aVDashboard Confessional
p2634
aVUpon A Burning Body
p2635
aVAmos Lee
p2636
aVLil Durk
p2637
aVDamon Albarn
p2638
aVBobby Shmurda
p2639
aVDamien Jurado
p2640
aVVince Neil
p2641
aVLarry Hernandez
p2642
aVParmalee
p2643
aVBonnie Raitt
p2644
aVYou+Me
p2645
aVCher Lloyd
p2646
aVThe Amity Affliction
p2647
aVSoulfly
p2648
aVRhye
p2649
aVBosnian Rainbows
p2650
aVHollie Cavanagh
p2651
aVWu-Block
p2652
aVSons Of Sylvia
p2653
aVOneRepublic
p2654
aVCoffey Anderson
p2655
aV3 Winans Brothers
p2656
aVShooter Jennings
p2657
aVOriginal Broadway Cast
p2658
aVLed Zeppelin
p2659
aVMatt & Kim
p2660
aVAsleep At The Wheel
p2661
aVRita Wilson
p2662
aVCascada
p2663
aVDesaparecidos
p2664
aVPlacebo
p2665
aVTenacious D
p2666
aVChet Faker
p2667
aVEmpire Of The Sun
p2668
aVSteve Earle & The Dukes
p2669
aVBeth Hart
p2670
aVPink Floyd
p2671
aVDJ Skee Presents The Game
p2672
aVNicole Atkins
p2673
aVReba
p2674
aVRoberta Flack
p2675
aVRenee Olstead
p2676
aVBeady Eye
p2677
aVBoA
p2678
aVTech N9ne Collabos
p2679
aVGrizzly Bear
p2680
aVKingdom Of Sorrow
p2681
aVTrent Reznor And Atticus Ross
p2682
aVLenny Kravitz
p2683
aVJodeci
p2684
aVDepeche Mode
p2685
aVA$AP Rocky
p2686
aVRob Zombie
p2687
aVBlack Dub
p2688
aVSidewalk Prophets
p2689
aVRandom Axe
p2690
aVSylvan Esso
p2691
aVRa Ra Riot
p2692
aVBooker T. Jones
p2693
aVPassion Pit
p2694
aVDavid Guetta
p2695
aVK. Michelle
p2696
aVInfant Sorrow
p2697
aVMannheim Steamroller/Czech Philharmonic Orchestra
p2698
aVTravis Tritt
p2699
aVGloria Estefan
p2700
aVThe Gracious Few
p2701
aVBlondie
p2702
aVSlug & Murs With Aesop Rock
p2703
aVWild Nothing
p2704
aVCes Cru
p2705
aVRobert Cray Band
p2706
aVWrekonize
p2707
aVSOHN
p2708
aVVan Cliburn
p2709
aVMichelle Chamuel
p2710
aVRonnie Dunn
p2711
aVEric Clapton
p2712
aVGet Scared
p2713
aVChris August
p2714
aVSharon Jones And The Dap-Kings
p2715
aVPerfume Genius
p2716
aVFaith No More
p2717
aVThe Books
p2718
aVFilter
p2719
aVMoby
p2720
aVPurity Ring
p2721
aVMetro Station
p2722
aVPatty Loveless
p2723
aVBrian Eno & Hyde
p2724
aVThe Sword
p2725
aV(hed) planet earth
p2726
aVCradle Of Filth
p2727
aVThe Pains Of Being Pure At Heart
p2728
aVStevie Wonder
p2729
aVMartina McBride
p2730
aVEyes Set To Kill
p2731
aVBlack Veil Brides
p2732
aVBenedictines Of Mary, Queen Of Apostles
p2733
aVDamien
p2734
aVMake Me Famous
p2735
aVIntocable
p2736
aVMAYDAY X Murs!
p2737
aVRL Grime
p2738
aVAs Tall As Lions
p2739
aVUnderworld
p2740
aVBeBe Winans
p2741
aVThe Gossip
p2742
aVHuey Mack
p2743
aVNick Jonas
p2744
aVVanessa Williams
p2745
aVRuben Studdard
p2746
aVJackyl
p2747
aVLil Boosie, Webbie, Lil Trill & Trill Fam
p2748
aVVanessa Carlton
p2749
aVThe Dangerous Summer
p2750
aVJohn Carpenter
p2751
aVTech N9ne/DJ Whoo Kid
p2752
aVOwl City
p2753
aVWillie Nelson / Merle Haggard
p2754
aVLeAnn Rimes
p2755
aVDinosaur Jr.
p2756
aVW.L.A.K.
p2757
aVYeasayer
p2758
aVHail Mary Mallon
p2759
aVCody Johnson
p2760
aVJonathan McReynolds
p2761
aVSchool Of Seven Bells
p2762
aVNine Inch Nails
p2763
aVFleetwood Mac
p2764
aVDuelo
p2765
aVTanlines
p2766
aVDrake Bell
p2767
aVKnuckle Puck
p2768
aVCase
p2769
aVGood Old War
p2770
aVSean Kingston
p2771
aVChrissie Hynde
p2772
aVAnjulie
p2773
aVMudvayne
p2774
aVScott Weiland And The Wildabouts
p2775
aVThe Cab
p2776
aVThe Who
p2777
aVMusiq Soulchild
p2778
aVGeorge Benson
p2779
aVJoe Budden
p2780
aVJ Dilla
p2781
aVDwight Yoakam
p2782
aVBobby V
p2783
aVYo-Yo Ma / Kathryn Stott
p2784
aVStyx
p2785
aVLos Inquietos del Norte
p2786
aVShakey Graves
p2787
aVNew Years Day
p2788
aVWolves At The Gate
p2789
aVAccept
p2790
aVIngrid Michaelson
p2791
aVBlack Violin
p2792
aVDave Matthews & Tim Reynolds
p2793
aVColony House
p2794
aVIggy Azalea
p2795
aVKid Rock
p2796
aVIssues
p2797
aVJimmy Needham
p2798
aVCapital Cities
p2799
aVMIKA
p2800
aVJimi Hendrix Experience
p2801
aVKiller Be Killed
p2802
aVBeyonce
p2803
aVBob Marley & The Wailers
p2804
aVThe Glitch Mob
p2805
aVEmarosa
p2806
aVJoss Stone
p2807
aVThe Weeknd
p2808
aVCanton Jones
p2809
aVRay LaMontagne
p2810
aVCindy Cruse Ratcliff
p2811
aVMeghan Linsey
p2812
aVSeether
p2813
aVThe Wonder Years
p2814
aVAlacranes Musical
p2815
aVAtoms For Peace
p2816
aVG-Eazy
p2817
aVRX Bandits
p2818
aVThe Red Jumpsuit Apparatus
p2819
aVFeed Me
p2820
aVEminem
p2821
aVEscape The Fate
p2822
aVMKTO
p2823
aVDiplo
p2824
aVLucy Hale
p2825
aVDarius Rucker
p2826
aV2AM Club
p2827
aVWynonna
p2828
aVJennifer Knapp
p2829
aVWovenwar
p2830
aVAndrew McMahon
p2831
aVTriptykon
p2832
aVBen Harper And Relentless7
p2833
aVThree Days Grace
p2834
aVThe Beatles
p2835
aVThe All-American Rejects
p2836
aVAl Green
p2837
aVClean Bandit
p2838
aVBeing As An  Ocean
p2839
aVFiona Apple
p2840
aVAriana Grande
p2841
aVJohn Hiatt
p2842
aVElbow
p2843
aVAssJack
p2844
aVGlenn Frey
p2845
aVCast Recording
p2846
aVLos Lonely Boys
p2847
aVOCD: Moosh & Twist
p2848
aVDrive-By Truckers
p2849
aVChuck Brown
p2850
aVArmin van Buuren
p2851
aVThe Secret Sisters
p2852
aVAugust Alsina
p2853
aVHillsong Young & Free
p2854
aVFoxygen
p2855
aVJames Durbin
p2856
aVTanya Tucker
p2857
aVDivine Heresy
p2858
aVMatt Morris
p2859
aVnewsboys
p2860
aVArjona
p2861
aVNathan East
p2862
aVLove And Death
p2863
aVOne Less Reason
p2864
aVAlabama Shakes
p2865
aVBoyz II Men
p2866
aVBoDeans
p2867
aV50 Cent
p2868
aVBig K.R.I.T.
p2869
aVCharlie Zaa
p2870
aVRick Braun
p2871
aVThe National
p2872
aVJunip
p2873
aVVivian Green
p2874
aVCattle Decapitation
p2875
aVThe Dead Weather
p2876
aVHayes Carll
p2877
aVDown
p2878
aVCamera Obscura
p2879
aVBlink-182
p2880
aVJanet
p2881
aVVince Gill & Paul Franklin
p2882
aVRhett Walker Band
p2883
aVLiving Colour
p2884
aVThe Cure
p2885
aVWilliam McDowell
p2886
aVSnow Patrol
p2887
aVRelient K
p2888
aVJ.J. Hairston & Youthful Praise
p2889
aVRunner Runner
p2890
aVJim Jones
p2891
aV4TROOPS
p2892
aVThe Human Abstract
p2893
aVDiscovery
p2894
aVMetallica
p2895
aVNoisettes
p2896
aVMarty
p2897
aVDJ Premier/Bumpy Knuckles
p2898
aVPet Shop Boys
p2899
aVIggy Pop
p2900
aVBehemoth
p2901
aVRebecca St. James
p2902
aVWolfmother
p2903
aVLeela James
p2904
aVNickelback
p2905
aVDeitrick Haddon
p2906
aVHawthorne Heights
p2907
aVVolumes
p2908
aVPitbull
p2909
aVTouche Amore
p2910
aVDJ Mustard
p2911
aVJay Z
p2912
aVGerald Levert
p2913
aVNickel Creek
p2914
aVDirty Loops
p2915
aVIndia.Arie
p2916
aVMisty Edwards
p2917
aVThe Band
p2918
aVImmortal
p2919
aVRingo Starr
p2920
aVNate Ruess
p2921
aVRyan Leslie
p2922
aVSum 41
p2923
aVWatsky
p2924
aVMindless Self Indulgence
p2925
aVDanity Kane
p2926
aVSawyer Fredericks
p2927
aVBombay Bicycle Club
p2928
aVEazy-E
p2929
aVTyler Ward
p2930
aVRich Robinson
p2931
aVJohn Lennon & Yoko Ono
p2932
aVBridgit Mendler
p2933
aVAlex Faith
p2934
aVAnnie Lennox
p2935
aVAndy Mineo
p2936
aVHAIM
p2937
aVMy Morning Jacket
p2938
aVCarlos Vives
p2939
aVThe Dear Hunter
p2940
aVMartin Garrix
p2941
aVJoel Ortiz
p2942
aVSkinny Puppy
p2943
aVJohn P. Kee And New Life
p2944
aVElectrik Red
p2945
aVKorn
p2946
aVThin Lizzy
p2947
aVTrivium
p2948
aVThe Cajo Family
p2949
aVOriginal Broadway Cast Recording
p2950
aVAkon
p2951
aVThere For Tomorrow
p2952
aVMontgomery Gentry
p2953
aVJon Pardi
p2954
aVJames Vincent McMorrow
p2955
aVWhite Lies
p2956
aVTNGHT
p2957
aVPete Rock / Smif-n-Wessun
p2958
aVThe Ready Set
p2959
aVRenee Spearman Featuring D.J. Rogers
p2960
aVTeyana Taylor
p2961
aVBroken Bells
p2962
aVWoodkid
p2963
aVJason Isbell
p2964
aVHoundmouth
p2965
aVFlorence + The Machine
p2966
aVLagwagon
p2967
aVBenjamin Booker
p2968
aVBlues Traveler
p2969
aVJoey Alexander
p2970
aVLamb Of God
p2971
aVGregory Alan Isakov
p2972
aVGhostface Killah
p2973
aVAvery * Sunshine
p2974
aVHurray For The Riff Raff
p2975
aVOdd Future
p2976
aVMicky & The Motorcars
p2977
aVGwar
p2978
aVZee Avi
p2979
aVJillian Edwards
p2980
aVBlack Rebel Motorcycle Club
p2981
aVJay Farrar & Benjamin Gibbard
p2982
aVChris Mann
p2983
aVRoyce Da 5'9"
p2984
aVWe As Human
p2985
aVAventura
p2986
aVKris Allen
p2987
aVChante Moore
p2988
aVTom Morello/Boots Riley
p2989
aVMadeon
p2990
aVHope Sandoval & The Warm Inventions
p2991
aVWinger
p2992
aVTitle Fight
p2993
aVPolica
p2994
aVThe Notorious B.I.G.
p2995
aVRiff Raff
p2996
aVSky Ferreira
p2997
aVLil Wayne & DJ Drama
p2998
aVDoe B
p2999
aVSugarland
p3000
aVChromeo
p3001
aVYG
p3002
aVAxewound
p3003
aVDead Can Dance
p3004
aVKeith Jarrett/Gary Peacock/Jack DeJohnette
p3005
aVPatrice O'Neal
p3006
aVThe Color Morale
p3007
aVTori Kelly
p3008
aVGyptian
p3009
aVAfrojack
p3010
aV2Cellos
p3011
aVCasey Donahew Band
p3012
aVGrieves
p3013
aVJEFF The Brotherhood
p3014
aVSwollen Members
p3015
aVThis Wild Life
p3016
aVTaking Back Sunday
p3017
aVGuster
p3018
aVFireflight
p3019
aVThe Ramones
p3020
aVThe Starlight Orchestra And Singers
p3021
aVSage The Gemini
p3022
aVRailroad Earth
p3023
aVHIM
p3024
aVGhost
p3025
aVThe Walls Group
p3026
aVEl-P
p3027
aVABK
p3028
aVEmery
p3029
aVSoulja Boy
p3030
aVEric Benet
p3031
aVGov't Mule
p3032
aVJethro Tull's Ian Anderson
p3033
aVCloud Nothings
p3034
aVJob For A Cowboy
p3035
aVLaura Izibor
p3036
aVArmy Of The Pharaohs
p3037
aVTesseracT
p3038
aVBlack Tide
p3039
aVX Ambassadors
p3040
aVKristene DiMarco
p3041
aVtwenty one pilots
p3042
aVYandel
p3043
aVHank III
p3044
aVVickie Winans
p3045
aVPat Metheny Unity Group
p3046
aVJD McPherson Featuring Jimmy Sutton And Alex Hall
p3047
aVKimbra
p3048
aVOne Direction
p3049
aVKenny Rogers
p3050
aVDerek & The Dominoes
p3051
aVMadina Lake
p3052
aVLeslie West
p3053
aVClap Your Hands Say Yeah
p3054
aVSteve Harris
p3055
aVDavid Nail
p3056
aVDonny & Marie
p3057
aVFates Warning
p3058
aVBlue October
p3059
aVOne: A Worship Collective
p3060
aVNick & Knight
p3061
aVTantric
p3062
aVParquet Chourts
p3063
aVPentatonix
p3064
aVMelanie Martinez
p3065
aVBrantley Gilbert
p3066
aVErica Campbell
p3067
aVYouth Lagoon
p3068
aVSabaton
p3069
aVElvis Presley
p3070
aVBeirut
p3071
aVSevendust
p3072
aVLa Arrolladora Banda El Limon
p3073
aVDave Alvin & Phil Alvin
p3074
aVHerbie Hancock
p3075
aVThe Jimi Hendrix Experience
p3076
aVChris Stapleton
p3077
aVHilary Weeks
p3078
aVLou Reed
p3079
aVGreen Day
p3080
aVSteve Hare
p3081
aVKings Of Leon
p3082
aVDaya
p3083
aVDJ Drama Presents: Wyclef Jean aka Toussaint St. Jean
p3084
aVTweet
p3085
aVJonsi
p3086
aVCrowbar
p3087
aVThe Strokes
p3088
aVCam'Ron
p3089
aVSafetySuit
p3090
aVPharoahe Monch
p3091
aVpureNRG
p3092
aVMike Posner
p3093
aVCam
p3094
aVNew Hope Oahu
p3095
aVLondon Grammar
p3096
aVDru Hill
p3097
aVAudra McDonald
p3098
aVCasting Crowns
p3099
aVChayanne
p3100
aVFurther Seems Forever
p3101
aVKansas
p3102
aVmatchbox twenty
p3103
aVDon Trip
p3104
aVPatti Smith
p3105
aVVedera
p3106
aVDondria
p3107
aVRobert Glasper Experiment
p3108
aVThe Downtown Fiction
p3109
aVOriginal Cast Recording
p3110
aVMannheim Steamroller/Czehc Philharmonic Orchestra
p3111
aVErin McCarley
p3112
aVKaren O
p3113
aVPVRIS
p3114
aVFabolous
p3115
aVBryan & Katie Torwalt
p3116
aVPaul McCartney & Wings
p3117
aVRings Of Saturn
p3118
aVMegadeth
p3119
aVThe Devin Townsend Project
p3120
aVShinedown
p3121
aVJhene Aiko
p3122
aVCrystal Aikin
p3123
aVLynyrd Skynyrd
p3124
aVChinx
p3125
aVLondon Symphony Orchestra
p3126
aVPig Destroyer
p3127
aVNick Jonas & The Administration
p3128
aVChris Rene
p3129
aVBastille
p3130
aVZZ Ward
p3131
aVHilary Duff
p3132
aVRakim
p3133
aVJohnny Cash
p3134
aVTony Bennett/Dave Brubeck
p3135
aVBad Meets Evil
p3136
aVWakey!Wakey!
p3137
aVTheophilus London
p3138
aVAustin Mahone
p3139
aVbwb
p3140
aVMiguel
p3141
aVGlass Cloud
p3142
aVYolanda Adams
p3143
aVMarco Antonio Solis
p3144
aVThe Smashing Pumpkins
p3145
aVLacuna Coil
p3146
aVWhite Rabbits
p3147
aVHank Williams Jr.
p3148
aVTriple C's
p3149
aVFrankie Valli And The Four Seasons
p3150
aVKiesza
p3151
aVQ-Tip
p3152
aVAiden
p3153
aVMark Salling
p3154
aVMike E. Clark
p3155
aVAesop Rock
p3156
aVThe Script
p3157
aVThe Sounds
p3158
aVKim Walker-Smith
p3159
aVBen Folds Five
p3160
aVJosh Abbott Band
p3161
aVSteven Curtis Chapman
p3162
aVKing Los
p3163
aVClint Black
p3164
aVSyleena Johnson
p3165
aVSymphony X
p3166
aVGotye
p3167
aVDestroyer
p3168
aVMethod Man & Redman
p3169
aVYears & Years
p3170
aVNatalie Merchant
p3171
aVShadows Fall
p3172
aVJulia Fischer/Academy Of St Martin In The Fields
p3173
aVSwitchfoot
p3174
aVLostprophets
p3175
aVVeil Of Maya
p3176
aVVampire Weekend
p3177
aVThomas Miles aka Nephew Tommy
p3178
aVAretha Franklin
p3179
aVChuck Ragan
p3180
aVTinie Tempah
p3181
aVJerry Douglas
p3182
aVSonic Youth
p3183
aVFireworks
p3184
aVWarren Haynes
p3185
aVJackson Browne   David Lindley
p3186
aVSix Feet Under
p3187
aVEdward Sharpe And The Magnetic Zeros
p3188
aVDemon Hunter
p3189
aVWolf Parade
p3190
aVHelloween
p3191
aVThe Dandy Warhols
p3192
aVBasement Jaxx
p3193
aVOf Mice & Men
p3194
aVWings
p3195
aVYoung Money
p3196
aVCypress Hill
p3197
aVCurren$Y
p3198
aVDawn Richard
p3199
aVLee Ann Womack
p3200
aVPorter Robinson
p3201
aVGloria Trevi
p3202
aVSusan Boyle
p3203
aVJohn Lennon
p3204
aVP!nk
p3205
aVRy Cooder
p3206
aVHe Is Legend
p3207
aVBrotha Lynch Hung
p3208
aVAndre Rieu & His Johann Strauss Orchestra
p3209
aVBlack Sabbath
p3210
aVKB
p3211
aVKanye West
p3212
aVCurren$y
p3213
aVA Great Big World
p3214
aVSBTRKT
p3215
aVJawga Boyz & Dez
p3216
aVWarpaint
p3217
aVThe Lawrence Arms
p3218
aValt-J
p3219
aVMy Chemical Romance
p3220
aVGeorge Michael
p3221
aVEvidence x Alchemist: Step Brothers
p3222
aVThe Format
p3223
aVSharon Needles
p3224
aVDropkick Murphys
p3225
aVBen Harper With Charlie Musselwhite
p3226
aVJ. Holiday
p3227
aVDilated Peoples
p3228
aVSteve Vai
p3229
aVDavid Waxman
p3230
aV9th Wonder
p3231
aVEspinoza Paz
p3232
aVRodney Crowell
p3233
aVWisin & Yandel
p3234
aVCam'ron & The U.N.
p3235
aVMichael Ray
p3236
aVTurnpike Troubadours
p3237
aVKevin Rudolf
p3238
aVRyan Adams
p3239
aVPhish
p3240
aVFlex
p3241
aVTom Keifer
p3242
aVYoung Buck
p3243
aVthe twilight singers
p3244
aVEllie Holcomb
p3245
aVShontelle
p3246
aVThe Jacka
p3247
aVNatalie Cole
p3248
aVMiranda Lambert
p3249
aVKiss
p3250
aVThe Bravery
p3251
aVJohn Legend
p3252
aVThe Cool Kids
p3253
aVSecondhand Serenade
p3254
aVRobbie Seay Band
p3255
aVKrishna Das
p3256
aVLalah Hathaway
p3257
aVG. Love & Special Sauce
p3258
aVCage The Elephant
p3259
aVNick Lowe
p3260
aVJustin Hayward
p3261
aVAnthony David
p3262
aVAugustana
p3263
aVShawn Mendes
p3264
aVTired Pony
p3265
aVSteve Aoki
p3266
aVJenny Lewis
p3267
aVNorma Jean
p3268
aVIsaiah Rashad
p3269
aVMacklemore & Ryan Lewis
p3270
aVUncle Acid
p3271
aVGodsmack
p3272
aVGhost B.C.
p3273
aVPlacido Domingo
p3274
aVBrandon Heath
p3275
aVRick Springfield
p3276
aVJacob Whitesides
p3277
aVJimi Hendrix
p3278
aVSlim
p3279
aVJavier Colon
p3280
aVVic Latino
p3281
aVGerard Way
p3282
aVEluveitie
p3283
aVGunplay
p3284
aVBig Sean
p3285
aVBen Rector
p3286
aVGuns N' Roses
p3287
aVLee Williams And The Spiritual QC's
p3288
aVDeafheaven
p3289
aVDolly Parton
p3290
aVQueensryche
p3291
aVMack 10
p3292
aVDaley
p3293
aVLittle Dragon
p3294
aVRedman
p3295
aVPhil Collins
p3296
aVMichael Franti & Spearhead
p3297
aVBeanie Sigel
p3298
aVVance Joy
p3299
aVGoat
p3300
aVThe Shins
p3301
aVWalk Off The Earth
p3302
aVGalactic
p3303
aVAction Bronson
p3304
aVClose Your Eyes
p3305
aVLadytron
p3306
aVFreeway & Jake One
p3307
aVSlaughterhouse
p3308
aVPerfect Pussy
p3309
aVTycho
p3310
aVThe Brian Setzer Orchestra
p3311
aVFailure
p3312
aVRufus Wainwright
p3313
aVDrowning Pool
p3314
aVSelah
p3315
aVSufjan Stevens
p3316
aVThe Avett Brothers
p3317
aVKris Kristofferson
p3318
aVAnita Wilson
p3319
aVBattles
p3320
aVReckless Kelly
p3321
aVChester French
p3322
aVTye Tribbett
p3323
aVAngels & Airwaves
p3324
aVPastor Troy
p3325
aVP.O.D.
p3326
aVCounting Crows
p3327
aVCavalera Conspiracy
p3328
aVChief Keef
p3329
aVHarry Connick, Jr.
p3330
aVChuck Wicks
p3331
aVThe Gaslight Anthem
p3332
aVKill The Noise
p3333
aVMadchild
p3334
aVEx Hex
p3335
aVJessie Ware
p3336
aVBig & Rich
p3337
aVGungor
p3338
aVVince Guaraldi Trio
p3339
aVEasy Star All-Stars
p3340
aVThe Drifters
p3341
aVJustin Nozuka
p3342
aVThe Hoppers
p3343
aVEmily Osment
p3344
aVPalisades
p3345
aVChronixx
p3346
aVHalsey
p3347
aVmoe.
p3348
aVArchitects UK
p3349
aVJoan Sebastian
p3350
aVAoife O'Donovan
p3351
aVDom Kennedy
p3352
aVDir En Grey
p3353
aVEric Clapton & Friends
p3354
aVPassion
p3355
aVAnimals As Leaders
p3356
aVUnited Pursuit
p3357
aVJohnny Marr
p3358
aVSheryl Crow
p3359
aVLuciano Pavarotti
p3360
aVThe Orb Featuring David Gilmour
p3361
aVDave Rawlings Machine
p3362
aVLil Rob
p3363
aVDevin The Dude
p3364
aVThe Derek Trucks Band
p3365
aVJimmy Eat World
p3366
aVBuddy Guy
p3367
aVRae Sremmurd
p3368
aVBishop Rudolph McKissick Jr. And The Word & Worship Mass Choir
p3369
aVAshton Shepherd
p3370
aVIced Earth
p3371
aVGuy Penrod
p3372
aVCa$h Out
p3373
aVDarkest Hour
p3374
aVButcher Babies
p3375
aVMeredith Andrews
p3376
aVWhitesnake
p3377
aVPortugal. The Man
p3378
aVLil Dicky
p3379
aVFarruko
p3380
aVFaith Hill
p3381
aVTame Impala
p3382
aVJedi Mind Tricks
p3383
aVJack & Jack
p3384
aVEveryday Sunday
p3385
aVAnthony Hamilton
p3386
aVTate Stevens
p3387
aVLauren Alaina
p3388
aVAaron Watson
p3389
aVJaheim
p3390
aVThe Dillinger Escape Plan
p3391
aVStephen Lynch
p3392
aVScale The Summit
p3393
aVMiddle Brother
p3394
aVBlack Joe Lewis & The Honeybears
p3395
aVRogue Wave
p3396
aVJames Blake
p3397
aVIcona Pop
p3398
aVThe Foreign Exchange
p3399
aVNew Life Worship
p3400
aVBurn Halo
p3401
aVJulianne Hough
p3402
aVTigers Jaw
p3403
aVPreashea Hilliard
p3404
aVStalley
p3405
aVJosh Wilson
p3406
aVGirls
p3407
aVAWOLNATION
p3408
aVUnwritten Law
p3409
aVCross Canadian Ragweed
p3410
aVLow
p3411
aVBomshel
p3412
aVGaelic Storm
p3413
aVNothing More
p3414
aVSeth Avett & Jessica Lea Mayfield
p3415
aVDJ Paul Of Three 6 Mafia
p3416
aVCraig Finn
p3417
aVKina Grannis
p3418
aVCaribou
p3419
aVFlux Pavilion
p3420
aVTrae Tha Truth
p3421
aVSpoon
p3422
aVKottonmouth Kings
p3423
aVSteel Panther
p3424
aVMayday!
p3425
aVMajor Lazer
p3426
aVYoungblood Hawke
p3427
aV21:03
p3428
aVBette Midler
p3429
aVJosh Krajcik
p3430
aVSlipknot
p3431
aVSkyzoo
p3432
aVLoreena McKennitt
p3433
aVThe Naked And Famous
p3434
aVRichard Smallwood With Vision
p3435
aVWye Oak
p3436
aVJackie Evancho
p3437
aVMariah Carey
p3438
aVJason Derulo
p3439
aVIn This Moment
p3440
aVBright Eyes
p3441
aVCharlie Hall
p3442
aVDr. Kokastien
p3443
aV'68
p3444
aVGerardo Ortiz
p3445
aVIncubus
p3446
aVThe Oak Ridge Boys
p3447
aVLanghorne Slim & The Law
p3448
aVSnootie Wild
p3449
aVSundy Best
p3450
aVEric Paslay
p3451
aVBrian Setzer
p3452
aVConor Oberst
p3453
aVSammy Hagar
p3454
aVK'Naan
p3455
aVD-Block
p3456
aVMarina And The Diamonds
p3457
aVNeil Young + Promise Of The Real
p3458
aVLa Roux
p3459
aVAndre Rieu And His Johann Strauss Orchestra
p3460
aVFuel
p3461
aVLil Wyte
p3462
aVMannheim Streamroller/Czech Philharmonic Orchestra
p3463
aVSkylar Laine
p3464
aVAmaranthe
p3465
aVRemmy Valenzuela
p3466
aVLucinda Williams
p3467
aVDarryl Worley
p3468
aVDope
p3469
aVKrizz Kaliko
p3470
aVApocalyptica
p3471
aVHellYeah
p3472
aVDevilDriver
p3473
aVSocial Club
p3474
aVMiley Cyrus
p3475
aVCloud Cult
p3476
aVDixie Chicks
p3477
aVKevin Gates
p3478
aVGin Wigmore
p3479
aVDelta Rae
p3480
aVPlies
p3481
aVAttila
p3482
aVThe Internet
p3483
aVHeaven & Hell
p3484
aVMannheim Steamroller
p3485
aVShout Out Louds
p3486
aVJosh Turner
p3487
aVFreeway
p3488
aVHank 3
p3489
aVVan Morrison
p3490
aVTroye Sivan
p3491
aVAvatar
p3492
aVDance Gavin Dance
p3493
aVJosh Rouse
p3494
aVGrimes
p3495
aVMaddie & Tae
p3496
aVTommy Torres
p3497
aVKokane
p3498
aVBettye LaVette
p3499
aVPatrick Stump
p3500
aVJames Bay
p3501
aVMichael Buble
p3502
aVFlatfoot 56
p3503
aVMan Overboard
p3504
aVRoyksopp
p3505
aVSteve Earle & The Dukes (& Duchesses)
p3506
aVMatt Nathanson
p3507
aVSimone Dinnerstein/Kammerorchester/Staatskapelle Berlin
p3508
aVJordin Sparks
p3509
aVMary J. Blige
p3510
aVElliott Yamin
p3511
aVMod Sun
p3512
aVCavo
p3513
aVElvis Perkins
p3514
aVCeltic Thunder
p3515
aVKeith Jarrett / Charlie Haden
p3516
aVRyan Bingham
p3517
aVDrake & Future
p3518
aVTIP
p3519
aVLea Michele
p3520
aVBT
p3521
aVKatt Williams
p3522
aVChely Wright
p3523
aVKatie Armiger
p3524
aVAgainst Me!
p3525
aVNew Order
p3526
aVFirst Aid Kit
p3527
aVBrooks & Dunn
p3528
aVMegan Hilty
p3529
aVImogen Heap
p3530
aVKandi
p3531
aVGreen River Ordinance
p3532
aVZeds Dead
p3533
aVCamila
p3534
aVDelbert McClinton & Dick50
p3535
aVExpire
p3536
aVDave Alvin
p3537
aVMormon Tabernacle Choir/Orchestra At Temple Square
p3538
aVKevin Hart
p3539
aVKevin Fowler
p3540
aVHaste The Day
p3541
aVJustice
p3542
aVmewithoutYou
p3543
aVCapital Kings
p3544
aVNehruvianDOOM
p3545
aVVeruca Salt
p3546
aVNico & Vinz
p3547
aVChris Young
p3548
aVYouthful Praise Featuring J.J. Hairston
p3549
aVYoung Thug
p3550
aVJoan Osborne
p3551
aVDef Leppard
p3552
aVCrown The Empire
p3553
aVBig Bad Voodoo Daddy
p3554
aVBoys Like Girls
p3555
aVHawk Nelson
p3556
aVAnthony Brown & group therAPy
p3557
aVBrian Eno With Jon Hopkins & Leo Abrahams
p3558
aVJessica Simpson
p3559
aVCarl Thomas
p3560
aVCreed
p3561
aVInsane Clown Posse
p3562
aVTapes 'n Tapes
p3563
aVThe Game
p3564
aVOverkill
p3565
aVKing Tuff
p3566
aVJanis Joplin
p3567
aVStaind
p3568
aVLonestar
p3569
aVTed Leo And The Pharmacists
p3570
aVThe Uncluded
p3571
aVDonald Lawrence
p3572
aVBleachers
p3573
aVDirty Projectors
p3574
aVJesus Culture
p3575
aVU2
p3576
aVThem Crooked Vultures
p3577
aVForte
p3578
aVAlvin And The Chipmunks
p3579
aVTaio Cruz
p3580
aVFinch
p3581
aVThriving Ivory
p3582
aVPete Yorn & Scarlett Johansson
p3583
aVCassadee Pope
p3584
aVMarie Digby
p3585
aVfun.
p3586
aVPhil Vassar
p3587
aVTrevor Hall
p3588
aVShellac
p3589
aVYellowcard
p3590
aVAlpha Rev
p3591
aVMeshuggah
p3592
aVRascal Flatts
p3593
aVDeerhoof
p3594
aVThe Swon Brothers
p3595
aVPillar
p3596
aVThe Classic Crime
p3597
aVJana Kramer
p3598
aVThe Lone Bellow
p3599
aVKate Nash
p3600
aVNeon Indian
p3601
aVDan Auerbach
p3602
aVPimp C
p3603
aVJewel
p3604
aVMushroomhead
p3605
aVMadeleine Peyroux
p3606
aVKelly Price
p3607
aVLou Reed & Metallica
p3608
aVCatfish And The Bottlemen
p3609
aVDeath Cab For Cutie
p3610
aVFace To Face
p3611
aVKings Kaleidoscope
p3612
aVNewsboys
p3613
aVJoey Ramone
p3614
aVAlanis Morissette
p3615
aVTony Okungbowa
p3616
aVFucked Up
p3617
aVSteve Grand
p3618
aVAlice In Chains
p3619
aVMigos
p3620
aVDeltron 3030
p3621
aVThe Greater Allen Cathedral
p3622
aVDr. Mitch Gaynor And Jon Regen
p3623
aVPat Metheny/Chris Potter/Ben Williams/Antonio Sanchez
p3624
aVMaroon 5
p3625
aVGeorge Jones
p3626
aVTrace Adkins
p3627
aVThe Men
p3628
aVBlood On The Dancefloor
p3629
aVJustin Furstenfeld
p3630
aVCody Simpson
p3631
aVTony Bennett & Lady Gaga
p3632
aVNKOTBSB
p3633
aVThe Madden Brothers
p3634
aVOver The Rhine
p3635
aVDwele
p3636
aVThe 2011 Broadway Cast Recording
p3637
aVNeko Case
p3638
aVStreet Sweeper Social Club
p3639
aVSmokey Robinson
p3640
aVThe Ghost Of A Saber Tooth Tiger
p3641
aVEdward Sharpe & The Magnetic Zeroes
p3642
aVDying Fetus
p3643
aVLee DeWyze
p3644
aVA$AP Ferg
p3645
aVChiddy Bang
p3646
aVMilky Chance
p3647
aVJohnny Gill
p3648
aVNoah Gundersen
p3649
aVAlexi Murdoch
p3650
aVFour Tet
p3651
aVLydia
p3652
aVQuasimoto
p3653
aVAlison Krauss + Union Station
p3654
aVWidespread Panic
p3655
aVWu-Tang Clan
p3656
aVThe Piano Guys
p3657
aV3 Doors Down
p3658
aVJordan Knight
p3659
aVThe Pussycat Dolls
p3660
aVSteffany Gretzinger
p3661
aVTedeschi Trucks Band
p3662
aVDev
p3663
aVEverfound
p3664
aVThe Airborne Toxic Event
p3665
aVMy Darkest Days
p3666
aVRon Isley
p3667
aVQueen + Paul Rodgers
p3668
aVFlame
p3669
aVCassidy
p3670
aVStraight No Chaser
p3671
aVDiddy - Dirty Money
p3672
aVFantasia
p3673
aVWale
p3674
aVRon White
p3675
aVMatt McAndrew
p3676
aVDorothy Norwood
p3677
aVBIGBANG
p3678
aVMarina & The Diamonds
p3679
aVSigur Ros
p3680
aVBrandi Carlile
p3681
aVSoundgarden
p3682
aVSkylar Grey
p3683
aVAndrew Bird
p3684
aVEvanescence
p3685
aVGlass Animals
p3686
aVProdigy Of Mobb Deep
p3687
aVAdore Delano
p3688
aVAliados De La Sierra
p3689
aVNeil Sedaka
p3690
aVKoryn Hawthorne
p3691
aVTrans-Siberian Orchestra
p3692
aVSmile Empty Soul
p3693
aVDaughter
p3694
aVDonna Summer
p3695
aVBADBADNOTGOOD & Ghosface Killah
p3696
aVSilversun Pickups
p3697
aVRebecca Ferguson
p3698
aVThe Griswolds
p3699
aVDessa
p3700
aVRyn Weaver
p3701
aVCasey James
p3702
aVTempo
p3703
aVSir Michael Rocks
p3704
aVMario
p3705
aVSean Paul
p3706
aVStone Temple Pilots With Chester Bennington
p3707
aVYo-Yo Ma/Stuart Duncan/Edgar Meyer/Chris Thile
p3708
aVN.W.A
p3709
aVAngie Miller
p3710
aVHalloween FX Productions
p3711
aVKreator
p3712
aVThe Chipmunks With David Seville
p3713
aVJoshua Radin
p3714
aVOld Dominion
p3715
aVTech N9ne Presents Stevie Stone
p3716
aVABBA
p3717
aVSecrets
p3718
aVJerry Garcia Band
p3719
aVDJ Khaled
p3720
aVClyde Bawden
p3721
aVJason Boland & The Stragglers
p3722
aVMarc Cohn
p3723
aVLady Gaga
p3724
aVFuture
p3725
aVRooney
p3726
aVColt Ford
p3727
aVBilly Talent
p3728
aVBarenaked Ladies
p3729
aVMark Schultz
p3730
aVDoves
p3731
aVFred Hammond
p3732
aVZella Day
p3733
aVGarbage
p3734
aVPistol Annies
p3735
aVSteve Earle
p3736
aVThe Colourist
p3737
aVNikki Yanofsky
p3738
aVTexas In July
p3739
aVTwiztid
p3740
aVMeg Myers
p3741
aVPhil Wickham
p3742
aVLos Rieleros del Norte
p3743
aVJay-Z
p3744
aVJulian Casablancas + The Voidz
p3745
aVIris Dement
p3746
atp3747
Rp3748
.